   1               		.file	"main.c"
   2               	__SP_H__ = 0x3e
   3               	__SP_L__ = 0x3d
   4               	__SREG__ = 0x3f
   5               	__tmp_reg__ = 0
   6               	__zero_reg__ = 1
   7               		.text
   8               	.Ltext0:
   9               		.cfi_sections	.debug_frame
  10               	.global	ds18b20_reset
  12               	ds18b20_reset:
  13               	.LFB7:
  14               		.file 1 "ds18b20.c"
   1:ds18b20.c     **** /*
   2:ds18b20.c     **** ds18b20 lib 0x01
   3:ds18b20.c     **** 
   4:ds18b20.c     **** copyright (c) Davide Gironi, 2012
   5:ds18b20.c     **** 
   6:ds18b20.c     **** Released under GPLv3.
   7:ds18b20.c     **** Please refer to LICENSE file for licensing information.
   8:ds18b20.c     **** */
   9:ds18b20.c     **** 
  10:ds18b20.c     **** #include <avr/io.h>
  11:ds18b20.c     **** #include <util/delay.h>
  12:ds18b20.c     **** 
  13:ds18b20.c     **** #include "ds18b20.h"
  14:ds18b20.c     **** 
  15:ds18b20.c     **** /*
  16:ds18b20.c     ****  * ds18b20 init
  17:ds18b20.c     ****  */
  18:ds18b20.c     **** uint8_t ds18b20_reset(void) {
  15               		.loc 1 18 0
  16               		.cfi_startproc
  17               	/* prologue: function */
  18               	/* frame size = 0 */
  19               	/* stack size = 0 */
  20               	.L__stack_usage = 0
  19:ds18b20.c     **** 	uint8_t i;
  20:ds18b20.c     **** 
  21:ds18b20.c     **** 	//low for 480us
  22:ds18b20.c     **** 	DS18B20_PORT &= ~ (1<<DS18B20_DQ); //low
  21               		.loc 1 22 0
  22 0000 4598      		cbi 0x8,5
  23:ds18b20.c     **** 	DS18B20_DDR |= (1<<DS18B20_DQ); //output
  23               		.loc 1 23 0
  24 0002 3D9A      		sbi 0x7,5
  25               	.LVL0:
  26               	.LBB175:
  27               	.LBB176:
  28               	.LBB177:
  29               	.LBB178:
  30               	.LBB179:
  31               	.LBB180:
  32               		.file 2 "/opt/local/lib/gcc/avr/4.7.2/../../../../avr/include/util/delay_basic.h"
   1:/opt/local/lib/gcc/avr/4.7.2/../../../../avr/include/util/delay_basic.h **** /* Copyright (c) 2002, Marek Michalkiewicz
   2:/opt/local/lib/gcc/avr/4.7.2/../../../../avr/include/util/delay_basic.h ****    Copyright (c) 2007 Joerg Wunsch
   3:/opt/local/lib/gcc/avr/4.7.2/../../../../avr/include/util/delay_basic.h ****    All rights reserved.
   4:/opt/local/lib/gcc/avr/4.7.2/../../../../avr/include/util/delay_basic.h **** 
   5:/opt/local/lib/gcc/avr/4.7.2/../../../../avr/include/util/delay_basic.h ****    Redistribution and use in source and binary forms, with or without
   6:/opt/local/lib/gcc/avr/4.7.2/../../../../avr/include/util/delay_basic.h ****    modification, are permitted provided that the following conditions are met:
   7:/opt/local/lib/gcc/avr/4.7.2/../../../../avr/include/util/delay_basic.h **** 
   8:/opt/local/lib/gcc/avr/4.7.2/../../../../avr/include/util/delay_basic.h ****    * Redistributions of source code must retain the above copyright
   9:/opt/local/lib/gcc/avr/4.7.2/../../../../avr/include/util/delay_basic.h ****      notice, this list of conditions and the following disclaimer.
  10:/opt/local/lib/gcc/avr/4.7.2/../../../../avr/include/util/delay_basic.h **** 
  11:/opt/local/lib/gcc/avr/4.7.2/../../../../avr/include/util/delay_basic.h ****    * Redistributions in binary form must reproduce the above copyright
  12:/opt/local/lib/gcc/avr/4.7.2/../../../../avr/include/util/delay_basic.h ****      notice, this list of conditions and the following disclaimer in
  13:/opt/local/lib/gcc/avr/4.7.2/../../../../avr/include/util/delay_basic.h ****      the documentation and/or other materials provided with the
  14:/opt/local/lib/gcc/avr/4.7.2/../../../../avr/include/util/delay_basic.h ****      distribution.
  15:/opt/local/lib/gcc/avr/4.7.2/../../../../avr/include/util/delay_basic.h **** 
  16:/opt/local/lib/gcc/avr/4.7.2/../../../../avr/include/util/delay_basic.h ****    * Neither the name of the copyright holders nor the names of
  17:/opt/local/lib/gcc/avr/4.7.2/../../../../avr/include/util/delay_basic.h ****      contributors may be used to endorse or promote products derived
  18:/opt/local/lib/gcc/avr/4.7.2/../../../../avr/include/util/delay_basic.h ****      from this software without specific prior written permission.
  19:/opt/local/lib/gcc/avr/4.7.2/../../../../avr/include/util/delay_basic.h **** 
  20:/opt/local/lib/gcc/avr/4.7.2/../../../../avr/include/util/delay_basic.h ****   THIS SOFTWARE IS PROVIDED BY THE COPYRIGHT HOLDERS AND CONTRIBUTORS "AS IS"
  21:/opt/local/lib/gcc/avr/4.7.2/../../../../avr/include/util/delay_basic.h ****   AND ANY EXPRESS OR IMPLIED WARRANTIES, INCLUDING, BUT NOT LIMITED TO, THE
  22:/opt/local/lib/gcc/avr/4.7.2/../../../../avr/include/util/delay_basic.h ****   IMPLIED WARRANTIES OF MERCHANTABILITY AND FITNESS FOR A PARTICULAR PURPOSE
  23:/opt/local/lib/gcc/avr/4.7.2/../../../../avr/include/util/delay_basic.h ****   ARE DISCLAIMED. IN NO EVENT SHALL THE COPYRIGHT OWNER OR CONTRIBUTORS BE
  24:/opt/local/lib/gcc/avr/4.7.2/../../../../avr/include/util/delay_basic.h ****   LIABLE FOR ANY DIRECT, INDIRECT, INCIDENTAL, SPECIAL, EXEMPLARY, OR
  25:/opt/local/lib/gcc/avr/4.7.2/../../../../avr/include/util/delay_basic.h ****   CONSEQUENTIAL DAMAGES (INCLUDING, BUT NOT LIMITED TO, PROCUREMENT OF
  26:/opt/local/lib/gcc/avr/4.7.2/../../../../avr/include/util/delay_basic.h ****   SUBSTITUTE GOODS OR SERVICES; LOSS OF USE, DATA, OR PROFITS; OR BUSINESS
  27:/opt/local/lib/gcc/avr/4.7.2/../../../../avr/include/util/delay_basic.h ****   INTERRUPTION) HOWEVER CAUSED AND ON ANY THEORY OF LIABILITY, WHETHER IN
  28:/opt/local/lib/gcc/avr/4.7.2/../../../../avr/include/util/delay_basic.h ****   CONTRACT, STRICT LIABILITY, OR TORT (INCLUDING NEGLIGENCE OR OTHERWISE)
  29:/opt/local/lib/gcc/avr/4.7.2/../../../../avr/include/util/delay_basic.h ****   ARISING IN ANY WAY OUT OF THE USE OF THIS SOFTWARE, EVEN IF ADVISED OF THE
  30:/opt/local/lib/gcc/avr/4.7.2/../../../../avr/include/util/delay_basic.h ****   POSSIBILITY OF SUCH DAMAGE. */
  31:/opt/local/lib/gcc/avr/4.7.2/../../../../avr/include/util/delay_basic.h **** 
  32:/opt/local/lib/gcc/avr/4.7.2/../../../../avr/include/util/delay_basic.h **** /* $Id: delay_basic.h 2143 2010-06-08 21:19:51Z joerg_wunsch $ */
  33:/opt/local/lib/gcc/avr/4.7.2/../../../../avr/include/util/delay_basic.h **** 
  34:/opt/local/lib/gcc/avr/4.7.2/../../../../avr/include/util/delay_basic.h **** #ifndef _UTIL_DELAY_BASIC_H_
  35:/opt/local/lib/gcc/avr/4.7.2/../../../../avr/include/util/delay_basic.h **** #define _UTIL_DELAY_BASIC_H_ 1
  36:/opt/local/lib/gcc/avr/4.7.2/../../../../avr/include/util/delay_basic.h **** 
  37:/opt/local/lib/gcc/avr/4.7.2/../../../../avr/include/util/delay_basic.h **** #include <inttypes.h>
  38:/opt/local/lib/gcc/avr/4.7.2/../../../../avr/include/util/delay_basic.h **** 
  39:/opt/local/lib/gcc/avr/4.7.2/../../../../avr/include/util/delay_basic.h **** #if !defined(__DOXYGEN__)
  40:/opt/local/lib/gcc/avr/4.7.2/../../../../avr/include/util/delay_basic.h **** static inline void _delay_loop_1(uint8_t __count) __attribute__((always_inline));
  41:/opt/local/lib/gcc/avr/4.7.2/../../../../avr/include/util/delay_basic.h **** static inline void _delay_loop_2(uint16_t __count) __attribute__((always_inline));
  42:/opt/local/lib/gcc/avr/4.7.2/../../../../avr/include/util/delay_basic.h **** #endif
  43:/opt/local/lib/gcc/avr/4.7.2/../../../../avr/include/util/delay_basic.h **** 
  44:/opt/local/lib/gcc/avr/4.7.2/../../../../avr/include/util/delay_basic.h **** /** \file */
  45:/opt/local/lib/gcc/avr/4.7.2/../../../../avr/include/util/delay_basic.h **** /** \defgroup util_delay_basic <util/delay_basic.h>: Basic busy-wait delay loops
  46:/opt/local/lib/gcc/avr/4.7.2/../../../../avr/include/util/delay_basic.h ****     \code
  47:/opt/local/lib/gcc/avr/4.7.2/../../../../avr/include/util/delay_basic.h ****     #include <util/delay_basic.h>
  48:/opt/local/lib/gcc/avr/4.7.2/../../../../avr/include/util/delay_basic.h ****     \endcode
  49:/opt/local/lib/gcc/avr/4.7.2/../../../../avr/include/util/delay_basic.h **** 
  50:/opt/local/lib/gcc/avr/4.7.2/../../../../avr/include/util/delay_basic.h ****     The functions in this header file implement simple delay loops
  51:/opt/local/lib/gcc/avr/4.7.2/../../../../avr/include/util/delay_basic.h ****     that perform a busy-waiting.  They are typically used to
  52:/opt/local/lib/gcc/avr/4.7.2/../../../../avr/include/util/delay_basic.h ****     facilitate short delays in the program execution.  They are
  53:/opt/local/lib/gcc/avr/4.7.2/../../../../avr/include/util/delay_basic.h ****     implemented as count-down loops with a well-known CPU cycle
  54:/opt/local/lib/gcc/avr/4.7.2/../../../../avr/include/util/delay_basic.h ****     count per loop iteration.  As such, no other processing can
  55:/opt/local/lib/gcc/avr/4.7.2/../../../../avr/include/util/delay_basic.h ****     occur simultaneously.  It should be kept in mind that the
  56:/opt/local/lib/gcc/avr/4.7.2/../../../../avr/include/util/delay_basic.h ****     functions described here do not disable interrupts.
  57:/opt/local/lib/gcc/avr/4.7.2/../../../../avr/include/util/delay_basic.h **** 
  58:/opt/local/lib/gcc/avr/4.7.2/../../../../avr/include/util/delay_basic.h ****     In general, for long delays, the use of hardware timers is
  59:/opt/local/lib/gcc/avr/4.7.2/../../../../avr/include/util/delay_basic.h ****     much preferrable, as they free the CPU, and allow for
  60:/opt/local/lib/gcc/avr/4.7.2/../../../../avr/include/util/delay_basic.h ****     concurrent processing of other events while the timer is
  61:/opt/local/lib/gcc/avr/4.7.2/../../../../avr/include/util/delay_basic.h ****     running.  However, in particular for very short delays, the
  62:/opt/local/lib/gcc/avr/4.7.2/../../../../avr/include/util/delay_basic.h ****     overhead of setting up a hardware timer is too much compared
  63:/opt/local/lib/gcc/avr/4.7.2/../../../../avr/include/util/delay_basic.h ****     to the overall delay time.
  64:/opt/local/lib/gcc/avr/4.7.2/../../../../avr/include/util/delay_basic.h **** 
  65:/opt/local/lib/gcc/avr/4.7.2/../../../../avr/include/util/delay_basic.h ****     Two inline functions are provided for the actual delay algorithms.
  66:/opt/local/lib/gcc/avr/4.7.2/../../../../avr/include/util/delay_basic.h **** 
  67:/opt/local/lib/gcc/avr/4.7.2/../../../../avr/include/util/delay_basic.h **** */
  68:/opt/local/lib/gcc/avr/4.7.2/../../../../avr/include/util/delay_basic.h **** 
  69:/opt/local/lib/gcc/avr/4.7.2/../../../../avr/include/util/delay_basic.h **** /** \ingroup util_delay_basic
  70:/opt/local/lib/gcc/avr/4.7.2/../../../../avr/include/util/delay_basic.h **** 
  71:/opt/local/lib/gcc/avr/4.7.2/../../../../avr/include/util/delay_basic.h ****     Delay loop using an 8-bit counter \c __count, so up to 256
  72:/opt/local/lib/gcc/avr/4.7.2/../../../../avr/include/util/delay_basic.h ****     iterations are possible.  (The value 256 would have to be passed
  73:/opt/local/lib/gcc/avr/4.7.2/../../../../avr/include/util/delay_basic.h ****     as 0.)  The loop executes three CPU cycles per iteration, not
  74:/opt/local/lib/gcc/avr/4.7.2/../../../../avr/include/util/delay_basic.h ****     including the overhead the compiler needs to setup the counter
  75:/opt/local/lib/gcc/avr/4.7.2/../../../../avr/include/util/delay_basic.h ****     register.
  76:/opt/local/lib/gcc/avr/4.7.2/../../../../avr/include/util/delay_basic.h **** 
  77:/opt/local/lib/gcc/avr/4.7.2/../../../../avr/include/util/delay_basic.h ****     Thus, at a CPU speed of 1 MHz, delays of up to 768 microseconds
  78:/opt/local/lib/gcc/avr/4.7.2/../../../../avr/include/util/delay_basic.h ****     can be achieved.
  79:/opt/local/lib/gcc/avr/4.7.2/../../../../avr/include/util/delay_basic.h **** */
  80:/opt/local/lib/gcc/avr/4.7.2/../../../../avr/include/util/delay_basic.h **** void
  81:/opt/local/lib/gcc/avr/4.7.2/../../../../avr/include/util/delay_basic.h **** _delay_loop_1(uint8_t __count)
  82:/opt/local/lib/gcc/avr/4.7.2/../../../../avr/include/util/delay_basic.h **** {
  83:/opt/local/lib/gcc/avr/4.7.2/../../../../avr/include/util/delay_basic.h **** 	__asm__ volatile (
  84:/opt/local/lib/gcc/avr/4.7.2/../../../../avr/include/util/delay_basic.h **** 		"1: dec %0" "\n\t"
  85:/opt/local/lib/gcc/avr/4.7.2/../../../../avr/include/util/delay_basic.h **** 		"brne 1b"
  86:/opt/local/lib/gcc/avr/4.7.2/../../../../avr/include/util/delay_basic.h **** 		: "=r" (__count)
  87:/opt/local/lib/gcc/avr/4.7.2/../../../../avr/include/util/delay_basic.h **** 		: "0" (__count)
  88:/opt/local/lib/gcc/avr/4.7.2/../../../../avr/include/util/delay_basic.h **** 	);
  89:/opt/local/lib/gcc/avr/4.7.2/../../../../avr/include/util/delay_basic.h **** }
  90:/opt/local/lib/gcc/avr/4.7.2/../../../../avr/include/util/delay_basic.h **** 
  91:/opt/local/lib/gcc/avr/4.7.2/../../../../avr/include/util/delay_basic.h **** /** \ingroup util_delay_basic
  92:/opt/local/lib/gcc/avr/4.7.2/../../../../avr/include/util/delay_basic.h **** 
  93:/opt/local/lib/gcc/avr/4.7.2/../../../../avr/include/util/delay_basic.h ****     Delay loop using a 16-bit counter \c __count, so up to 65536
  94:/opt/local/lib/gcc/avr/4.7.2/../../../../avr/include/util/delay_basic.h ****     iterations are possible.  (The value 65536 would have to be
  95:/opt/local/lib/gcc/avr/4.7.2/../../../../avr/include/util/delay_basic.h ****     passed as 0.)  The loop executes four CPU cycles per iteration,
  96:/opt/local/lib/gcc/avr/4.7.2/../../../../avr/include/util/delay_basic.h ****     not including the overhead the compiler requires to setup the
  97:/opt/local/lib/gcc/avr/4.7.2/../../../../avr/include/util/delay_basic.h ****     counter register pair.
  98:/opt/local/lib/gcc/avr/4.7.2/../../../../avr/include/util/delay_basic.h **** 
  99:/opt/local/lib/gcc/avr/4.7.2/../../../../avr/include/util/delay_basic.h ****     Thus, at a CPU speed of 1 MHz, delays of up to about 262.1
 100:/opt/local/lib/gcc/avr/4.7.2/../../../../avr/include/util/delay_basic.h ****     milliseconds can be achieved.
 101:/opt/local/lib/gcc/avr/4.7.2/../../../../avr/include/util/delay_basic.h ****  */
 102:/opt/local/lib/gcc/avr/4.7.2/../../../../avr/include/util/delay_basic.h **** void
 103:/opt/local/lib/gcc/avr/4.7.2/../../../../avr/include/util/delay_basic.h **** _delay_loop_2(uint16_t __count)
 104:/opt/local/lib/gcc/avr/4.7.2/../../../../avr/include/util/delay_basic.h **** {
 105:/opt/local/lib/gcc/avr/4.7.2/../../../../avr/include/util/delay_basic.h **** 	__asm__ volatile (
  33               		.loc 2 105 0
  34 0004 8EEA      		ldi r24,lo8(-82)
  35 0006 97E0      		ldi r25,lo8(7)
  36               	/* #APP */
  37               	 ;  105 "/opt/local/lib/gcc/avr/4.7.2/../../../../avr/include/util/delay_basic.h" 1
  38 0008 0197      		1: sbiw r24,1
  39 000a 01F4      		brne 1b
  40               	 ;  0 "" 2
  41               	.LVL1:
  42               	/* #NOAPP */
  43               	.LBE180:
  44               	.LBE179:
  45               	.LBE178:
  46               	.LBE177:
  47               	.LBE176:
  48               	.LBE175:
  24:ds18b20.c     **** 	_delay_us(480);
  25:ds18b20.c     **** 
  26:ds18b20.c     **** 	//release line and wait for 60uS
  27:ds18b20.c     **** 	DS18B20_DDR &= ~(1<<DS18B20_DQ); //input
  49               		.loc 1 27 0
  50 000c 3D98      		cbi 0x7,5
  51               	.LVL2:
  52               	.LBB181:
  53               	.LBB182:
  54               	.LBB183:
  55               	.LBB184:
  56               	.LBB185:
  57               	.LBB186:
  58               		.loc 2 105 0
  59 000e 85EF      		ldi r24,lo8(-11)
  60 0010 90E0      		ldi r25,0
  61               	/* #APP */
  62               	 ;  105 "/opt/local/lib/gcc/avr/4.7.2/../../../../avr/include/util/delay_basic.h" 1
  63 0012 0197      		1: sbiw r24,1
  64 0014 01F4      		brne 1b
  65               	 ;  0 "" 2
  66               	.LVL3:
  67               	/* #NOAPP */
  68               	.LBE186:
  69               	.LBE185:
  70               	.LBE184:
  71               	.LBE183:
  72               	.LBE182:
  73               	.LBE181:
  28:ds18b20.c     **** 	_delay_us(60);
  29:ds18b20.c     **** 
  30:ds18b20.c     **** 	//get value and wait 420us
  31:ds18b20.c     **** 	i = (DS18B20_PIN & (1<<DS18B20_DQ));
  74               		.loc 1 31 0
  75 0016 86B1      		in r24,0x6
  76               	.LVL4:
  77               	.LBB187:
  78               	.LBB188:
  79               	.LBB189:
  80               	.LBB190:
  81               	.LBB191:
  82               	.LBB192:
  83               		.loc 2 105 0
  84 0018 E8EB      		ldi r30,lo8(-72)
  85 001a F6E0      		ldi r31,lo8(6)
  86               	/* #APP */
  87               	 ;  105 "/opt/local/lib/gcc/avr/4.7.2/../../../../avr/include/util/delay_basic.h" 1
  88 001c 3197      		1: sbiw r30,1
  89 001e 01F4      		brne 1b
  90               	 ;  0 "" 2
  91               	.LVL5:
  92               	/* #NOAPP */
  93               	.LBE192:
  94               	.LBE191:
  95               	.LBE190:
  96               	.LBE189:
  97               	.LBE188:
  98               	.LBE187:
  32:ds18b20.c     **** 	_delay_us(420);
  33:ds18b20.c     **** 
  34:ds18b20.c     **** 	//return the read value, 0=ok, 1=error
  35:ds18b20.c     **** 	return i;
  36:ds18b20.c     **** }
  99               		.loc 1 36 0
 100 0020 8072      		andi r24,lo8(32)
 101               	.LVL6:
 102 0022 0895      		ret
 103               		.cfi_endproc
 104               	.LFE7:
 106               	.global	ds18b20_writebit
 108               	ds18b20_writebit:
 109               	.LFB8:
  37:ds18b20.c     **** 
  38:ds18b20.c     **** /*
  39:ds18b20.c     ****  * write one bit
  40:ds18b20.c     ****  */
  41:ds18b20.c     **** void ds18b20_writebit(uint8_t bit){
 110               		.loc 1 41 0
 111               		.cfi_startproc
 112               	.LVL7:
 113               	/* prologue: function */
 114               	/* frame size = 0 */
 115               	/* stack size = 0 */
 116               	.L__stack_usage = 0
  42:ds18b20.c     **** 	//low for 1uS
  43:ds18b20.c     **** 	DS18B20_PORT &= ~ (1<<DS18B20_DQ); //low
 117               		.loc 1 43 0
 118 0024 4598      		cbi 0x8,5
  44:ds18b20.c     **** 	DS18B20_DDR |= (1<<DS18B20_DQ); //output
 119               		.loc 1 44 0
 120 0026 3D9A      		sbi 0x7,5
 121               	.LVL8:
 122               	.LBB193:
 123               	.LBB194:
 124               	.LBB195:
 125               	.LBB196:
  83:/opt/local/lib/gcc/avr/4.7.2/../../../../avr/include/util/delay_basic.h **** 	__asm__ volatile (
 126               		.loc 2 83 0
 127 0028 95E0      		ldi r25,lo8(5)
 128               	/* #APP */
 129               	 ;  83 "/opt/local/lib/gcc/avr/4.7.2/../../../../avr/include/util/delay_basic.h" 1
 130 002a 9A95      		1: dec r25
 131 002c 01F4      		brne 1b
 132               	 ;  0 "" 2
 133               	.LVL9:
 134               	/* #NOAPP */
 135               	.LBE196:
 136               	.LBE195:
 137               	.LBE194:
 138               	.LBE193:
  45:ds18b20.c     **** 	_delay_us(1);
  46:ds18b20.c     **** 
  47:ds18b20.c     **** 	//if we want to write 1, release the line (if not will keep low)
  48:ds18b20.c     **** 	if(bit)
 139               		.loc 1 48 0
 140 002e 8111      		cpse r24,__zero_reg__
  49:ds18b20.c     **** 		DS18B20_DDR &= ~(1<<DS18B20_DQ); //input
 141               		.loc 1 49 0
 142 0030 3D98      		cbi 0x7,5
 143               	.L3:
 144               	.LVL10:
 145               	.LBB197:
 146               	.LBB198:
 147               	.LBB199:
 148               	.LBB200:
 149               	.LBB201:
 150               	.LBB202:
 151               		.loc 2 105 0
 152 0032 85EF      		ldi r24,lo8(-11)
 153 0034 90E0      		ldi r25,0
 154               	.LVL11:
 155               	/* #APP */
 156               	 ;  105 "/opt/local/lib/gcc/avr/4.7.2/../../../../avr/include/util/delay_basic.h" 1
 157 0036 0197      		1: sbiw r24,1
 158 0038 01F4      		brne 1b
 159               	 ;  0 "" 2
 160               	.LVL12:
 161               	/* #NOAPP */
 162               	.LBE202:
 163               	.LBE201:
 164               	.LBE200:
 165               	.LBE199:
 166               	.LBE198:
 167               	.LBE197:
  50:ds18b20.c     **** 
  51:ds18b20.c     **** 	//wait 60uS and release the line
  52:ds18b20.c     **** 	_delay_us(60);
  53:ds18b20.c     **** 	DS18B20_DDR &= ~(1<<DS18B20_DQ); //input
 168               		.loc 1 53 0
 169 003a 3D98      		cbi 0x7,5
 170 003c 0895      		ret
 171               		.cfi_endproc
 172               	.LFE8:
 174               	.global	ds18b20_readbit
 176               	ds18b20_readbit:
 177               	.LFB9:
  54:ds18b20.c     **** }
  55:ds18b20.c     **** 
  56:ds18b20.c     **** /*
  57:ds18b20.c     ****  * read one bit
  58:ds18b20.c     ****  */
  59:ds18b20.c     **** uint8_t ds18b20_readbit(void){
 178               		.loc 1 59 0
 179               		.cfi_startproc
 180               	/* prologue: function */
 181               	/* frame size = 0 */
 182               	/* stack size = 0 */
 183               	.L__stack_usage = 0
 184               	.LVL13:
  60:ds18b20.c     **** 	uint8_t bit=0;
  61:ds18b20.c     **** 
  62:ds18b20.c     **** 	//low for 1uS
  63:ds18b20.c     **** 	DS18B20_PORT &= ~ (1<<DS18B20_DQ); //low
 185               		.loc 1 63 0
 186 003e 4598      		cbi 0x8,5
  64:ds18b20.c     **** 	DS18B20_DDR |= (1<<DS18B20_DQ); //output
 187               		.loc 1 64 0
 188 0040 3D9A      		sbi 0x7,5
 189               	.LVL14:
 190               	.LBB203:
 191               	.LBB204:
 192               	.LBB205:
 193               	.LBB206:
  83:/opt/local/lib/gcc/avr/4.7.2/../../../../avr/include/util/delay_basic.h **** 	__asm__ volatile (
 194               		.loc 2 83 0
 195 0042 85E0      		ldi r24,lo8(5)
 196               	/* #APP */
 197               	 ;  83 "/opt/local/lib/gcc/avr/4.7.2/../../../../avr/include/util/delay_basic.h" 1
 198 0044 8A95      		1: dec r24
 199 0046 01F4      		brne 1b
 200               	 ;  0 "" 2
 201               	.LVL15:
 202               	/* #NOAPP */
 203               	.LBE206:
 204               	.LBE205:
 205               	.LBE204:
 206               	.LBE203:
  65:ds18b20.c     **** 	_delay_us(1);
  66:ds18b20.c     **** 
  67:ds18b20.c     **** 	//release line and wait for 14uS
  68:ds18b20.c     **** 	DS18B20_DDR &= ~(1<<DS18B20_DQ); //input
 207               		.loc 1 68 0
 208 0048 3D98      		cbi 0x7,5
 209               	.LVL16:
 210               	.LBB207:
 211               	.LBB208:
 212               	.LBB209:
 213               	.LBB210:
  83:/opt/local/lib/gcc/avr/4.7.2/../../../../avr/include/util/delay_basic.h **** 	__asm__ volatile (
 214               		.loc 2 83 0
 215 004a 8CE4      		ldi r24,lo8(76)
 216               	/* #APP */
 217               	 ;  83 "/opt/local/lib/gcc/avr/4.7.2/../../../../avr/include/util/delay_basic.h" 1
 218 004c 8A95      		1: dec r24
 219 004e 01F4      		brne 1b
 220               	 ;  0 "" 2
 221               	.LVL17:
 222               	/* #NOAPP */
 223               	.LBE210:
 224               	.LBE209:
 225               	.LBE208:
 226               	.LBE207:
  69:ds18b20.c     **** 	_delay_us(14);
  70:ds18b20.c     **** 
  71:ds18b20.c     **** 	//read the value
  72:ds18b20.c     **** 	if(DS18B20_PIN & (1<<DS18B20_DQ))
 227               		.loc 1 72 0
 228 0050 86B1      		in r24,0x6
 229               	.LVL18:
 230               	.LBB211:
 231               	.LBB212:
 232               	.LBB213:
 233               	.LBB214:
  83:/opt/local/lib/gcc/avr/4.7.2/../../../../avr/include/util/delay_basic.h **** 	__asm__ volatile (
 234               		.loc 2 83 0
 235 0052 95EF      		ldi r25,lo8(-11)
 236               	/* #APP */
 237               	 ;  83 "/opt/local/lib/gcc/avr/4.7.2/../../../../avr/include/util/delay_basic.h" 1
 238 0054 9A95      		1: dec r25
 239 0056 01F4      		brne 1b
 240               	 ;  0 "" 2
 241               	.LVL19:
 242               	/* #NOAPP */
 243               	.LBE214:
 244               	.LBE213:
 245               	.LBE212:
 246               	.LBE211:
  73:ds18b20.c     **** 		bit=1;
  74:ds18b20.c     **** 
  75:ds18b20.c     **** 	//wait 45uS and return read value
  76:ds18b20.c     **** 	_delay_us(45);
  77:ds18b20.c     **** 	return bit;
  78:ds18b20.c     **** }
 247               		.loc 1 78 0
 248 0058 85FB      		bst r24,5
 249 005a 8827      		clr r24
 250 005c 80F9      		bld r24,0
 251               	.LVL20:
 252 005e 0895      		ret
 253               		.cfi_endproc
 254               	.LFE9:
 256               	.global	ds18b20_writebyte
 258               	ds18b20_writebyte:
 259               	.LFB10:
  79:ds18b20.c     **** 
  80:ds18b20.c     **** /*
  81:ds18b20.c     ****  * write one byte
  82:ds18b20.c     ****  */
  83:ds18b20.c     **** void ds18b20_writebyte(uint8_t byte){
 260               		.loc 1 83 0
 261               		.cfi_startproc
 262               	.LVL21:
 263 0060 CF93      		push r28
 264               	.LCFI0:
 265               		.cfi_def_cfa_offset 3
 266               		.cfi_offset 28, -2
 267 0062 DF93      		push r29
 268               	.LCFI1:
 269               		.cfi_def_cfa_offset 4
 270               		.cfi_offset 29, -3
 271               	/* prologue: function */
 272               	/* frame size = 0 */
 273               	/* stack size = 2 */
 274               	.L__stack_usage = 2
 275 0064 D82F      		mov r29,r24
 276               	.LVL22:
  84:ds18b20.c     **** 	uint8_t i=8;
  85:ds18b20.c     **** 	while(i--){
 277               		.loc 1 85 0
 278 0066 C9E0      		ldi r28,lo8(9)
 279 0068 00C0      		rjmp .L9
 280               	.LVL23:
 281               	.L10:
  86:ds18b20.c     **** 		ds18b20_writebit(byte&1);
 282               		.loc 1 86 0
 283 006a 8D2F      		mov r24,r29
 284 006c 8170      		andi r24,lo8(1)
 285 006e 0E94 0000 		call ds18b20_writebit
 286               	.LVL24:
  87:ds18b20.c     **** 		byte >>= 1;
 287               		.loc 1 87 0
 288 0072 D695      		lsr r29
 289               	.LVL25:
 290               	.L9:
 291 0074 C150      		subi r28,lo8(-(-1))
  85:ds18b20.c     **** 	while(i--){
 292               		.loc 1 85 0 discriminator 1
 293 0076 01F4      		brne .L10
 294               	/* epilogue start */
  88:ds18b20.c     **** 	}
  89:ds18b20.c     **** }
 295               		.loc 1 89 0
 296 0078 DF91      		pop r29
 297               	.LVL26:
 298 007a CF91      		pop r28
 299 007c 0895      		ret
 300               		.cfi_endproc
 301               	.LFE10:
 303               	.global	ds18b20_readbyte
 305               	ds18b20_readbyte:
 306               	.LFB11:
  90:ds18b20.c     **** 
  91:ds18b20.c     **** /*
  92:ds18b20.c     ****  * read one byte
  93:ds18b20.c     ****  */
  94:ds18b20.c     **** uint8_t ds18b20_readbyte(void){
 307               		.loc 1 94 0
 308               		.cfi_startproc
 309 007e CF93      		push r28
 310               	.LCFI2:
 311               		.cfi_def_cfa_offset 3
 312               		.cfi_offset 28, -2
 313 0080 DF93      		push r29
 314               	.LCFI3:
 315               		.cfi_def_cfa_offset 4
 316               		.cfi_offset 29, -3
 317               	/* prologue: function */
 318               	/* frame size = 0 */
 319               	/* stack size = 2 */
 320               	.L__stack_usage = 2
 321               	.LVL27:
  95:ds18b20.c     **** 	uint8_t i=8, n=0;
  96:ds18b20.c     **** 	while(i--){
 322               		.loc 1 96 0
 323 0082 D9E0      		ldi r29,lo8(9)
  95:ds18b20.c     **** 	uint8_t i=8, n=0;
 324               		.loc 1 95 0
 325 0084 C0E0      		ldi r28,0
 326               		.loc 1 96 0
 327 0086 00C0      		rjmp .L12
 328               	.LVL28:
 329               	.L13:
  97:ds18b20.c     **** 		n >>= 1;
  98:ds18b20.c     **** 		n |= (ds18b20_readbit()<<7);
 330               		.loc 1 98 0
 331 0088 0E94 0000 		call ds18b20_readbit
 332               	.LVL29:
 333 008c 20E8      		ldi r18,lo8(-128)
 334 008e 829F      		mul r24,r18
 335 0090 C001      		movw r24,r0
 336 0092 1124      		clr __zero_reg__
  97:ds18b20.c     **** 		n >>= 1;
 337               		.loc 1 97 0
 338 0094 C695      		lsr r28
 339               	.LVL30:
 340               		.loc 1 98 0
 341 0096 C82B      		or r28,r24
 342               	.LVL31:
 343               	.L12:
 344 0098 D150      		subi r29,lo8(-(-1))
  96:ds18b20.c     **** 	while(i--){
 345               		.loc 1 96 0 discriminator 1
 346 009a 01F4      		brne .L13
  99:ds18b20.c     **** 	}
 100:ds18b20.c     **** 	return n;
 101:ds18b20.c     **** }
 347               		.loc 1 101 0
 348 009c 8C2F      		mov r24,r28
 349               	/* epilogue start */
 350 009e DF91      		pop r29
 351 00a0 CF91      		pop r28
 352               	.LVL32:
 353 00a2 0895      		ret
 354               		.cfi_endproc
 355               	.LFE11:
 357               	.global	__floatsisf
 358               	.global	__floatunsisf
 359               	.global	__mulsf3
 360               	.global	__addsf3
 361               	.global	ds18b20_gettemp
 363               	ds18b20_gettemp:
 364               	.LFB12:
 102:ds18b20.c     **** 
 103:ds18b20.c     **** /*
 104:ds18b20.c     ****  * get temperature
 105:ds18b20.c     ****  */
 106:ds18b20.c     **** double ds18b20_gettemp(void) {
 365               		.loc 1 106 0
 366               		.cfi_startproc
 367 00a4 CF92      		push r12
 368               	.LCFI4:
 369               		.cfi_def_cfa_offset 3
 370               		.cfi_offset 12, -2
 371 00a6 DF92      		push r13
 372               	.LCFI5:
 373               		.cfi_def_cfa_offset 4
 374               		.cfi_offset 13, -3
 375 00a8 EF92      		push r14
 376               	.LCFI6:
 377               		.cfi_def_cfa_offset 5
 378               		.cfi_offset 14, -4
 379 00aa FF92      		push r15
 380               	.LCFI7:
 381               		.cfi_def_cfa_offset 6
 382               		.cfi_offset 15, -5
 383 00ac 1F93      		push r17
 384               	.LCFI8:
 385               		.cfi_def_cfa_offset 7
 386               		.cfi_offset 17, -6
 387 00ae CF93      		push r28
 388               	.LCFI9:
 389               		.cfi_def_cfa_offset 8
 390               		.cfi_offset 28, -7
 391 00b0 DF93      		push r29
 392               	.LCFI10:
 393               		.cfi_def_cfa_offset 9
 394               		.cfi_offset 29, -8
 395               	/* prologue: function */
 396               	/* frame size = 0 */
 397               	/* stack size = 7 */
 398               	.L__stack_usage = 7
 399               	.LVL33:
 107:ds18b20.c     **** 	uint8_t temperature[2];
 108:ds18b20.c     **** 	int8_t digit;
 109:ds18b20.c     **** 	uint16_t decimal;
 110:ds18b20.c     **** 	double retd = 0;
 111:ds18b20.c     **** 
 112:ds18b20.c     **** 	ds18b20_reset(); //reset
 400               		.loc 1 112 0
 401 00b2 0E94 0000 		call ds18b20_reset
 402               	.LVL34:
 113:ds18b20.c     **** 	ds18b20_writebyte(DS18B20_CMD_SKIPROM); //skip ROM
 403               		.loc 1 113 0
 404 00b6 8CEC      		ldi r24,lo8(-52)
 405 00b8 0E94 0000 		call ds18b20_writebyte
 406               	.LVL35:
 114:ds18b20.c     **** 	ds18b20_writebyte(DS18B20_CMD_CONVERTTEMP); //start temperature conversion
 407               		.loc 1 114 0
 408 00bc 84E4      		ldi r24,lo8(68)
 409 00be 0E94 0000 		call ds18b20_writebyte
 410               	.LVL36:
 411               	.L15:
 115:ds18b20.c     **** 
 116:ds18b20.c     **** 	while(!ds18b20_readbit()); //wait until conversion is complete
 412               		.loc 1 116 0 discriminator 1
 413 00c2 0E94 0000 		call ds18b20_readbit
 414               	.LVL37:
 415 00c6 8823      		tst r24
 416 00c8 01F0      		breq .L15
 117:ds18b20.c     **** 
 118:ds18b20.c     **** 	ds18b20_reset(); //reset
 417               		.loc 1 118 0
 418 00ca 0E94 0000 		call ds18b20_reset
 419               	.LVL38:
 119:ds18b20.c     **** 	ds18b20_writebyte(DS18B20_CMD_SKIPROM); //skip ROM
 420               		.loc 1 119 0
 421 00ce 8CEC      		ldi r24,lo8(-52)
 422 00d0 0E94 0000 		call ds18b20_writebyte
 423               	.LVL39:
 120:ds18b20.c     **** 	ds18b20_writebyte(DS18B20_CMD_RSCRATCHPAD); //read scratchpad
 424               		.loc 1 120 0
 425 00d4 8EEB      		ldi r24,lo8(-66)
 426 00d6 0E94 0000 		call ds18b20_writebyte
 427               	.LVL40:
 121:ds18b20.c     **** 
 122:ds18b20.c     **** 	//read 2 byte from scratchpad
 123:ds18b20.c     **** 	temperature[0] = ds18b20_readbyte();
 428               		.loc 1 123 0
 429 00da 0E94 0000 		call ds18b20_readbyte
 430               	.LVL41:
 431 00de C82F      		mov r28,r24
 432               	.LVL42:
 124:ds18b20.c     **** 	temperature[1] = ds18b20_readbyte();
 433               		.loc 1 124 0
 434 00e0 0E94 0000 		call ds18b20_readbyte
 435               	.LVL43:
 436 00e4 182F      		mov r17,r24
 437               	.LVL44:
 125:ds18b20.c     **** 
 126:ds18b20.c     **** 	ds18b20_reset(); //reset
 438               		.loc 1 126 0
 439 00e6 0E94 0000 		call ds18b20_reset
 440               	.LVL45:
 127:ds18b20.c     **** 
 128:ds18b20.c     **** 	//store temperature integer digits
 129:ds18b20.c     **** 	digit = temperature[0]>>4;
 441               		.loc 1 129 0
 442 00ea 6C2F      		mov r22,r28
 443 00ec 6295      		swap r22
 444 00ee 6F70      		andi r22,lo8(15)
 445               	.LVL46:
 130:ds18b20.c     **** 	digit |= (temperature[1]&0x7)<<4;
 131:ds18b20.c     **** 
 132:ds18b20.c     **** 	//store temperature decimal digits
 133:ds18b20.c     **** 	decimal = temperature[0]&0xf;
 446               		.loc 1 133 0
 447 00f0 CF70      		andi r28,lo8(15)
 448               	.LVL47:
 449 00f2 D0E0      		ldi r29,0
 450               	.LVL48:
 130:ds18b20.c     **** 	digit |= (temperature[1]&0x7)<<4;
 451               		.loc 1 130 0
 452 00f4 1770      		andi r17,lo8(7)
 453               	.LVL49:
 454 00f6 20E1      		ldi r18,lo8(16)
 455 00f8 129F      		mul r17,r18
 456 00fa C001      		movw r24,r0
 457 00fc 1124      		clr __zero_reg__
 458 00fe 682B      		or r22,r24
 134:ds18b20.c     **** 	decimal *= DS18B20_DECIMALSTEPS;
 135:ds18b20.c     **** 
 136:ds18b20.c     **** 	//compose the double temperature value and return it
 137:ds18b20.c     **** 	retd = digit + decimal * 0.0001;
 459               		.loc 1 137 0
 460 0100 7727      		clr r23
 461 0102 67FD      		sbrc r22,7
 462 0104 7095      		com r23
 463 0106 872F      		mov r24,r23
 464 0108 972F      		mov r25,r23
 465 010a 0E94 0000 		call __floatsisf
 466               	.LVL50:
 467 010e 6B01      		movw r12,r22
 468 0110 7C01      		movw r14,r24
 134:ds18b20.c     **** 	decimal *= DS18B20_DECIMALSTEPS;
 469               		.loc 1 134 0
 470 0112 81E7      		ldi r24,lo8(113)
 471 0114 92E0      		ldi r25,lo8(2)
 472 0116 C89F      		mul r28,r24
 473 0118 B001      		movw r22,r0
 474 011a C99F      		mul r28,r25
 475 011c 700D      		add r23,r0
 476 011e D89F      		mul r29,r24
 477 0120 700D      		add r23,r0
 478 0122 1124      		clr r1
 479               	.LVL51:
 480               		.loc 1 137 0
 481 0124 80E0      		ldi r24,0
 482 0126 90E0      		ldi r25,0
 483 0128 0E94 0000 		call __floatunsisf
 484               	.LVL52:
 485 012c 27E1      		ldi r18,lo8(23)
 486 012e 37EB      		ldi r19,lo8(-73)
 487 0130 41ED      		ldi r20,lo8(-47)
 488 0132 58E3      		ldi r21,lo8(56)
 489 0134 0E94 0000 		call __mulsf3
 490               	.LVL53:
 491 0138 9B01      		movw r18,r22
 492 013a AC01      		movw r20,r24
 493 013c C701      		movw r24,r14
 494 013e B601      		movw r22,r12
 495 0140 0E94 0000 		call __addsf3
 496               	.LVL54:
 497               	/* epilogue start */
 138:ds18b20.c     **** 
 139:ds18b20.c     **** 	return retd;
 140:ds18b20.c     **** }
 498               		.loc 1 140 0
 499 0144 DF91      		pop r29
 500 0146 CF91      		pop r28
 501               	.LVL55:
 502 0148 1F91      		pop r17
 503 014a FF90      		pop r15
 504 014c EF90      		pop r14
 505 014e DF90      		pop r13
 506 0150 CF90      		pop r12
 507 0152 0895      		ret
 508               		.cfi_endproc
 509               	.LFE12:
 511               	.global	ioInit
 513               	ioInit:
 514               	.LFB14:
 515               		.file 3 "main.c"
   1:main.c        **** /*
   2:main.c        ****  ~~~~~~~~~~~~~~~~~~~******************** Program Description ********************~~~~~~~~~~~~~~~~~~
   3:main.c        ****  
   4:main.c        **** 	Program Title:	Nixie Clock
   5:main.c        **** 	Author:			Pete Mills
   6:main.c        **** 	Email:			mills.pete@gmail.com
   7:main.c        ****     Website:        petemills.blogspot.com
   8:main.c        **** 	Version:		1.0
   9:main.c        **** 	Filename:		main.c
  10:main.c        **** 	License:		CC BY-NC-SA 3.0 ( Creative Commons Attribution-NonCommercial-ShareAlike 3.0 Unported )
  11:main.c        ****  
  12:main.c        ****     Clock Description:
  13:main.c        ****     
  14:main.c        ****     This clock is settable using a USB serial interface.  
  15:main.c        ****     It has 12/24 Hr format - set miltime=1 via serial interface for 24 hour format, miltime=0 for 1
  16:main.c        ****     There is a temperature display. - set showtherm to 1 to display the temperature, set to 0 for n
  17:main.c        ****     The temperature can be displayed in celsius of fahrenheit.  Set celsius to 1 for C, set to 0 fo
  18:main.c        ****  
  19:main.c        ****     Software:
  20:main.c        ****     This software may borrow from some of the example code listed below:
  21:main.c        ****     http://homepage.hispeed.ch/peterfleury/doxygen/avr-gcc-libraries/group__pfleury__uart.html
  22:main.c        ****     http://teslabs.com/openplayer/docs/docs/other/ds18b20_pre1.pdf
  23:main.c        ****     https://github.com/ColinBrosseau/AVR-UART-Parse-exemple
  24:main.c        ****  
  25:main.c        **** 	Hardware Description:
  26:main.c        **** 	
  27:main.c        **** 	Processor:	ATMega328
  28:main.c        **** 	F_CPU:		16384000 Hz
  29:main.c        **** 	
  30:main.c        ****  ~~~~~~~~~~~~~~~~~~~******************** Program Description ********************~~~~~~~~~~~~~~~~~~
  31:main.c        ****  
  32:main.c        ****  
  33:main.c        ****  
  34:main.c        ****  
  35:main.c        ****  
  36:main.c        ****  ~~~~~~~~~~~~~~~~~~~~~******************** Fuse Settings ********************~~~~~~~~~~~~~~~~~~~~~~
  37:main.c        ****  
  38:main.c        **** 	Default		Description												Fuse Name / Setting
  39:main.c        **** 	
  40:main.c        **** 	CHANGED		External Crystal Osc.; 16K CK / 14 CK + 65 mS;			[ CKSEL = 1111 SUT = 11 ]
  41:main.c        **** 	UNCHANGED	Clock output on PORTB0; 								[ CKOUT = 0 ]
  42:main.c        **** 	CHANGED		Divide clock by 8 internally; 							[ CKDIV8 = 0 ]
  43:main.c        **** 	UNCHANGED	Boot Reset vector Enabled (default address=$0000); 		[ BOOTRST = 0 ]
  44:main.c        **** 	UNCHANGED	Boot Flash section size = 2048 words;					[ BOOTSZ = 00 ]
  45:main.c        **** 	UNCHANGED	Preserve EEPROM memory through the Chip Erase cycle;	[ EESAVE=0 ]
  46:main.c        **** 	UNCHANGED	Watch-dog Timer always on; 								[ WDTON = 0 ]
  47:main.c        **** 	UNCHANGED	Serial program downloading (SPI) enabled; 				[ SPIEN = 0 ]
  48:main.c        **** 	UNCHANGED	Debug Wire enable; 										[ DWEN = 0 ]
  49:main.c        **** 	UNCHANGED	Reset Disabled (Enable PC6 as i/o pin); 				[ RSTDISBL = 0 ]
  50:main.c        **** 	CHANGED		Brown-out detection level at VCC = 2.7v					[ BODLEVEL = 101 ]
  51:main.c        **** 	
  52:main.c        **** 	AVRDUDE_FUSES = -U lfuse:w:0xff:m -U hfuse:w:0xd9:m -U efuse:w:0xfd:m
  53:main.c        ****  
  54:main.c        ****  ~~~~~~~~~~~~~~~~~~~~~******************** Fuse Settings ********************~~~~~~~~~~~~~~~~~~~~~~
  55:main.c        ****  */
  56:main.c        **** 
  57:main.c        **** 
  58:main.c        **** 
  59:main.c        **** 
  60:main.c        **** 
  61:main.c        **** //~~~~~~~~~~~~~~~~~~~~~~******************** Includes ********************~~~~~~~~~~~~~~~~~~~~~~~~~
  62:main.c        **** 
  63:main.c        **** #include <stdlib.h>
  64:main.c        **** #include <avr/io.h>
  65:main.c        **** #define __DELAY_BACKWARD_COMPATIBLE__	// To allow passing of variables into delay functions.
  66:main.c        **** #include <util/delay.h>
  67:main.c        **** #include <avr/interrupt.h>
  68:main.c        **** #include <avr/pgmspace.h>
  69:main.c        **** #include <avr/eeprom.h>
  70:main.c        **** #include <string.h>
  71:main.c        **** 
  72:main.c        **** #include "uart.h"
  73:main.c        **** #include "main.h"
  74:main.c        **** #include "ds18b20.h"
  75:main.c        **** #include "ds18b20.c"
  76:main.c        **** 
  77:main.c        **** //~~~~~~~~~~~~~~~~~~~~~~******************** Includes ********************~~~~~~~~~~~~~~~~~~~~~~~~~
  78:main.c        **** 
  79:main.c        **** 
  80:main.c        **** 
  81:main.c        **** 
  82:main.c        **** 
  83:main.c        **** //~~~~~~~~~~~~~~~~~~~~~******************** Definitions ********************~~~~~~~~~~~~~~~~~~~~~~~
  84:main.c        **** 
  85:main.c        **** #define SW_1 			PD2		// Generic pushbutton switch.
  86:main.c        **** #define SER				PD3		// Shift registers.
  87:main.c        **** #define SRCLK			PD4		// Shift registers.
  88:main.c        **** #define RCLK			PD5		// Shift registers.
  89:main.c        **** #define F_BOOST			PD6		// Boost converter drive signal.
  90:main.c        **** #define LED 			PD7		// An LED for indication.
  91:main.c        **** 
  92:main.c        **** 
  93:main.c        **** 
  94:main.c        **** #define	AC_FREQ			PB0
  95:main.c        **** 
  96:main.c        **** // Analog inputs.
  97:main.c        **** #define PWR_OK			PC0		// adc_raw[0]
  98:main.c        **** #define HV_FEEDBACK		PC1		// adc_raw[1]
  99:main.c        **** #define BATT_VOLTAGE 	PC2		// adc_raw[2]
 100:main.c        **** #define	RECTIFIED_AC	PC3		// adc_raw[3]
 101:main.c        **** 
 102:main.c        **** #define TEMPERATURE_ARRAY_SIZE  6
 103:main.c        **** 
 104:main.c        **** #define UART_BAUD_RATE  57600
 105:main.c        **** 
 106:main.c        **** #define STRING_LENGTH   100		// UART parsing.
 107:main.c        **** #define CHAR_NEWLINE    '\n'
 108:main.c        **** #define CHAR_RETURN     '\r'
 109:main.c        **** #define RETURN_NEWLINE  "\r\n"
 110:main.c        **** 
 111:main.c        **** #define FIRST_ADC_INPUT 0		// lowest ADC channel to sample
 112:main.c        **** #define ADC_CHANNELS 	4		// number of ADC channels to sample
 113:main.c        **** #define ADC_VREF_TYPE 	64		// AVCC with external capacitor at AREF pin
 114:main.c        **** 
 115:main.c        **** #define AC_FRQ_FILT_SEC	60		// Number of seconds to collect zero crossings.  These zero crossings
 116:main.c        **** 								// will then be averaged anc computed to a frequency stored in acFrequency.
 117:main.c        **** 								
 118:main.c        **** #define AC_HERTZ		60		// number of AC cycles per second.  60 Hz (typ) North America, 50 Hz (typ) Eu
 119:main.c        **** 
 120:main.c        **** //~~~~~~~~~~~~~~~~~~~~~******************** Definitions ********************~~~~~~~~~~~~~~~~~~~~~~~
 121:main.c        **** 
 122:main.c        **** 
 123:main.c        **** 
 124:main.c        **** 
 125:main.c        **** 
 126:main.c        **** //~~~~~~~~~~~~~~~~~~~******************** Global Variables ********************~~~~~~~~~~~~~~~~~~~~
 127:main.c        **** 
 128:main.c        **** const int SERIAL_NUMBER = 100;  // Start at 100.
 129:main.c        **** 
 130:main.c        **** 
 131:main.c        **** uint8_t uartStringIndex = 0; 
 132:main.c        **** unsigned char uartString[STRING_LENGTH];
 133:main.c        **** 
 134:main.c        **** char myUartString[STRING_LENGTH];   // A working copy of uartString.
 135:main.c        **** 
 136:main.c        **** char printBuffer[ 100 ];            // For UART print
 137:main.c        **** 
 138:main.c        **** uint16_t serialInInteger = 0;       // The parsed value of an serial input command.
 139:main.c        **** 
 140:main.c        **** uint8_t hours   = 10;				// these keep track of the current date and time.
 141:main.c        **** uint8_t minutes = 10;
 142:main.c        **** uint8_t day     = 1;
 143:main.c        **** uint8_t month   = 2;
 144:main.c        **** uint16_t year   = 2015;
 145:main.c        **** volatile uint8_t seconds = 30;
 146:main.c        **** 
 147:main.c        **** volatile uint32_t mscal = 0;		// F_CPU / (F_CPU * PPM_ERROR); if mscal == 0, disable adjustment
 148:main.c        **** uint32_t EEMEM ee_mscal = 0;		// For storing to eeprom.
 149:main.c        **** 
 150:main.c        **** 
 151:main.c        **** uint8_t prevSeconds = 0;			// For firing a function every x minutes/seconds.
 152:main.c        **** uint8_t prevMinutes = 0;
 153:main.c        **** 
 154:main.c        **** uint8_t miltime = 1;        		// '1' to display 24-hour format, '0' to display 12-hour format
 155:main.c        **** uint8_t EEMEM ee_miltime = 1;		// for storing miltime to eeprom.
 156:main.c        **** uint8_t showtherm = 0;      		// '1' to display the temperature, '0' to have no temperature display
 157:main.c        **** uint8_t EEMEM ee_showtherm = 0;		// For eeprom storage.
 158:main.c        **** uint8_t showfreq = 0;      			// '1' to display the AC line frequency, '0' to have no frequency dis
 159:main.c        **** uint8_t EEMEM ee_showfreq = 0;		// For eeprom storage.
 160:main.c        **** uint8_t showdate = 0;				// '1' to show the date on the nixies every so often.  '0' to disable.
 161:main.c        **** uint8_t EEMEM ee_showdate = 0;		// For eeprom storage.
 162:main.c        **** uint8_t celsius = 1;        		// '1' to display temperature on the celsius scale, '0' for fahrenhei
 163:main.c        **** uint8_t EEMEM ee_celsius = 1;		// For eeprom storage.
 164:main.c        **** uint8_t doecho = 1;        			// '1' to echo back on the UART
 165:main.c        **** uint8_t EEMEM ee_doecho = 1;		// For eeprom storage.
 166:main.c        **** volatile uint8_t acclock = 1;       // '1' to use the AC power line frequency as a timebase.  '0' t
 167:main.c        **** uint8_t EEMEM ee_acclock = 1;		// For eeprom storage.
 168:main.c        **** uint8_t xtalisfast = 1;     		// '1' if the crystal is running faster than "real time", 0 if slower
 169:main.c        **** uint8_t EEMEM ee_xtalisfast = 1;	// For eeprom Storage.
 170:main.c        **** uint8_t toggleled = 1;     			// '1' to toggle the onboard LED at 1 Hz. "0" for LED OFF
 171:main.c        **** uint8_t EEMEM ee_toggleled = 1;		// For eeprom Storage.
 172:main.c        **** 
 173:main.c        **** uint32_t nixiesleepstart = 0;			// Value for shutting down the display on weekday nights.  24 hour 
 174:main.c        **** 										// Setting to 0 disables the feature.  A value of 1300 means 1:00 PM
 175:main.c        **** uint32_t EEMEM ee_nixiesleepstart = 0;	// For eeprom storage.
 176:main.c        **** uint32_t nixiesleepend = 0;				// This sets the time to turn on the nixies after being off since ni
 177:main.c        **** 										// The same 24 hr, no colon time format applies.  
 178:main.c        **** 										// Does not verify that the end time is after the start time.  You do.
 179:main.c        **** uint32_t EEMEM ee_nixiesleepend = 0;	// Storing to eeprom.
 180:main.c        **** 
 181:main.c        **** 
 182:main.c        **** double celsiusTemperature = 99.0;    		// The temperature read from the DS18b20 in celsius
 183:main.c        **** double averageCelsiusTemperature = 99.0;	// FIR filter for temperature.
 184:main.c        **** double arraySum = 0;						// FIR filter for temperature.
 185:main.c        **** 
 186:main.c        **** double movingAverageArray[ TEMPERATURE_ARRAY_SIZE ];	// 
 187:main.c        **** 
 188:main.c        **** volatile uint8_t boostConverterPwm = 0;		// Current PWM value for the boost converter.
 189:main.c        **** volatile uint8_t boostHighPwm = 80;			// High PWM value for the boost converter.
 190:main.c        **** volatile uint8_t boostLowPwm = 30;			// Low PWM value for the boost converter.
 191:main.c        **** 
 192:main.c        **** volatile uint8_t adc_raw[ADC_CHANNELS];		// For storing the raw ADC counts of conversions.
 193:main.c        **** 
 194:main.c        **** volatile uint16_t acZeroCrossCounter = 0;	// For calculating the AC power line frequency.
 195:main.c        **** volatile uint16_t acZeroCrossSnapshot = 0;	// For evaluating the contents at a specific time point.
 196:main.c        **** volatile double acFrequency = 0.0;			// For calculating the AC power line frequency.
 197:main.c        **** volatile uint8_t acFreqFlag = 0;			// When set to "1" the contents of acFrequency contain the 
 198:main.c        **** 											// total number of zero crossings since the last measure.
 199:main.c        **** 
 200:main.c        **** uint8_t cathodePoisonFlag = 0;				// Flag to tell the app to run the anti-poison routine.
 201:main.c        **** 
 202:main.c        **** //~~~~~~~~~~~~~~~~~~~******************** Global Variables ********************~~~~~~~~~~~~~~~~~~~~
 203:main.c        **** 
 204:main.c        **** 
 205:main.c        **** 
 206:main.c        **** 
 207:main.c        **** //~~~~~~~~~~~~~~~~~~~~~~~~~******************** MAIN ********************~~~~~~~~~~~~~~~~~~~~~~~~~~
 208:main.c        **** 
 209:main.c        **** int main(void)
 210:main.c        **** {
 211:main.c        ****     cli();
 212:main.c        ****     ioInit();
 213:main.c        ****     adcInit();
 214:main.c        ****     boostConverterInit();
 215:main.c        ****     rtcInit();
 216:main.c        ****     uartInit();
 217:main.c        ****     extInterruptInit();
 218:main.c        ****     readEepromToVars();  
 219:main.c        ****     sei();
 220:main.c        ****     
 221:main.c        ****     uartWelcome();
 222:main.c        **** 
 223:main.c        **** 
 224:main.c        ****     while( 1 )
 225:main.c        ****     {
 226:main.c        ****     	
 227:main.c        ****     	updateAcFrequency();			// Every AC_FRQ_FILT_SEC seconds, compute the average.
 228:main.c        ****     	updateTemperatureFilter( 20 );	// FIR averaging filter for the DS18b20.
 229:main.c        ****         updateNixieOutputState();		// Turns ON or OFF the nixie tubes based on input power and slee
 230:main.c        ****       	checkSerialIn();				// Is there new serial data available?
 231:main.c        **** 		updateDateTime();				// Keep track of the current date and time.
 232:main.c        ****       
 233:main.c        ****         // If the time has changed, update the display.
 234:main.c        ****         if( seconds != prevSeconds)
 235:main.c        ****         {
 236:main.c        ****             nixiePrintTime( 1 );	// Display the current time on the nixie tubes and toggle the deci
 237:main.c        ****             prevSeconds = seconds;
 238:main.c        ****             
 239:main.c        ****             //serialPrintDateTime();
 240:main.c        ****             //uart_puts(RETURN_NEWLINE);
 241:main.c        ****              
 242:main.c        ****             //print_value("Day of the week", dayOfWeek( day, month, year ) );
 243:main.c        ****             //uart_puts(RETURN_NEWLINE);
 244:main.c        **** 
 245:main.c        ****         }
 246:main.c        **** 
 247:main.c        **** 
 248:main.c        ****         if( minutes != prevMinutes)
 249:main.c        ****         {
 250:main.c        ****         	cathodePoisonFlag = 1;		// Set every minute.  Cleared in checkCathodePoison(). 
 251:main.c        ****             
 252:main.c        ****             serialPrintDateTime();
 253:main.c        ****             serialPrintTemperature();
 254:main.c        ****             serialPrintAcFrequency();
 255:main.c        ****             uart_puts(RETURN_NEWLINE);
 256:main.c        **** 
 257:main.c        ****             
 258:main.c        ****             // On the nixie.
 259:main.c        ****             if( showdate ){
 260:main.c        ****             	nixiePrintDate();
 261:main.c        ****             	_delay_ms( 5000 );
 262:main.c        ****             }
 263:main.c        ****             
 264:main.c        ****             // On the nixie.
 265:main.c        ****            	if( showtherm ){
 266:main.c        ****            		nixiePrintTemperature();
 267:main.c        ****            		_delay_ms( 5000 );
 268:main.c        ****            	}
 269:main.c        ****            	
 270:main.c        ****            	// On the nixie.
 271:main.c        ****            	if( showfreq ){
 272:main.c        ****            		nixiePrintAcFrequency();
 273:main.c        ****            		_delay_ms( 5000 );
 274:main.c        ****            	}
 275:main.c        ****            
 276:main.c        ****             prevMinutes = minutes;   
 277:main.c        ****         }
 278:main.c        ****         
 279:main.c        ****         checkCathodePoison();			// do the antipoison routine if ready.
 280:main.c        ****         
 281:main.c        ****     }
 282:main.c        **** }
 283:main.c        **** //~~~~~~~~~~~~~~~~~~~~~~~~~******************** MAIN ********************~~~~~~~~~~~~~~~~~~~~~~~~~~
 284:main.c        **** 
 285:main.c        **** 
 286:main.c        **** 
 287:main.c        **** 
 288:main.c        **** void ioInit(void)
 289:main.c        **** {
 516               		.loc 3 289 0
 517               		.cfi_startproc
 518               	/* prologue: function */
 519               	/* frame size = 0 */
 520               	/* stack size = 0 */
 521               	.L__stack_usage = 0
 290:main.c        ****     //~~~~~~~~~~~~~~~~~~******************** Pin Configuration ********************~~~~~~~~~~~~~~~~
 291:main.c        ****     
 292:main.c        ****     // outputs
 293:main.c        ****     
 294:main.c        ****     DDRD |= ( ( 1 << SW_1 ) | ( 1 << SER ) | ( 1 << SRCLK ) | ( 1 << RCLK ) | ( 1 << F_BOOST ) | ( 
 522               		.loc 3 294 0
 523 0154 8AB1      		in r24,0xa
 524 0156 8C6F      		ori r24,lo8(-4)
 525 0158 8AB9      		out 0xa,r24
 295:main.c        ****     PORTD &= ~( ( 1 << SW_1 ) | ( 1 << SER ) | ( 1 << SRCLK ) | ( 1 << RCLK ) |( 1 << F_BOOST ) | (
 526               		.loc 3 295 0
 527 015a 8BB1      		in r24,0xb
 528 015c 8370      		andi r24,lo8(3)
 529 015e 8BB9      		out 0xb,r24
 296:main.c        ****     
 297:main.c        ****     
 298:main.c        ****     // inputs
 299:main.c        ****     
 300:main.c        ****     DDRD &= ~( 1 << SW_1 );	// set pin to 0 for input
 530               		.loc 3 300 0
 531 0160 5298      		cbi 0xa,2
 301:main.c        ****     PORTD |= ( 1 << SW_1 );	// enable internal pullup
 532               		.loc 3 301 0
 533 0162 5A9A      		sbi 0xb,2
 302:main.c        ****     
 303:main.c        ****     DDRB &= ~( 1 << AC_FREQ );	// set pin to 0 for input
 534               		.loc 3 303 0
 535 0164 2098      		cbi 0x4,0
 304:main.c        ****     PORTB |= ( 1 << AC_FREQ );	// enable internal pullup
 536               		.loc 3 304 0
 537 0166 289A      		sbi 0x5,0
 305:main.c        ****     
 306:main.c        ****     DDRC &= ~( ( 1 << PWR_OK ) | ( 1 << HV_FEEDBACK ) | ( 1 << BATT_VOLTAGE ) | ( 1 << RECTIFIED_AC
 538               		.loc 3 306 0
 539 0168 87B1      		in r24,0x7
 540 016a 807F      		andi r24,lo8(-16)
 541 016c 87B9      		out 0x7,r24
 542 016e 0895      		ret
 543               		.cfi_endproc
 544               	.LFE14:
 546               	.global	extInterruptInit
 548               	extInterruptInit:
 549               	.LFB15:
 307:main.c        ****     
 308:main.c        ****     //~~~~~~~~~~~~~~~~~~******************** Pin Configuration ********************~~~~~~~~~~~~~~~~
 309:main.c        **** }
 310:main.c        **** 
 311:main.c        **** 
 312:main.c        **** 
 313:main.c        **** 
 314:main.c        **** 
 315:main.c        **** void extInterruptInit( void )
 316:main.c        **** {
 550               		.loc 3 316 0
 551               		.cfi_startproc
 552               	/* prologue: function */
 553               	/* frame size = 0 */
 554               	/* stack size = 0 */
 555               	.L__stack_usage = 0
 317:main.c        **** 	//~~~~~~~~~~~~~~~~~~************** External Interrupt Configuration ************~~~~~~~~~~~~~~~~~~
 318:main.c        **** 
 319:main.c        ****     PCICR = 0x01; 	// Allow pin change interrupts.
 556               		.loc 3 319 0
 557 0170 81E0      		ldi r24,lo8(1)
 558 0172 8093 6800 		sts 104,r24
 320:main.c        ****     PCMSK0 = 0x01; 	// Enable interrupts specifically for pin PCINT0 
 559               		.loc 3 320 0
 560 0176 8093 6B00 		sts 107,r24
 561 017a 0895      		ret
 562               		.cfi_endproc
 563               	.LFE15:
 565               	.global	rtcInit
 567               	rtcInit:
 568               	.LFB16:
 321:main.c        ****     
 322:main.c        ****     //~~~~~~~~~~~~~~~~~~************** External Interrupt Configuration ************~~~~~~~~~~~~~~~
 323:main.c        **** }
 324:main.c        **** 
 325:main.c        **** 
 326:main.c        **** 
 327:main.c        **** 
 328:main.c        **** 
 329:main.c        **** void rtcInit( void )
 330:main.c        **** {
 569               		.loc 3 330 0
 570               		.cfi_startproc
 571               	/* prologue: function */
 572               	/* frame size = 0 */
 573               	/* stack size = 0 */
 574               	.L__stack_usage = 0
 331:main.c        **** 	//~~~~~~~~~~~~~~~~~~***************** RTC Timer Configuration *****************~~~~~~~~~~~~~~~~~~~
 332:main.c        **** 
 333:main.c        ****     OCR1AH = 0;                 // Interrupt at 1.000 kHz, 0.001 S.
 575               		.loc 3 333 0
 576 017c 1092 8900 		sts 137,__zero_reg__
 334:main.c        ****     OCR1AL = 63;                // Decimal 63, one less than 64000/1000 because 0 and top are count
 577               		.loc 3 334 0
 578 0180 8FE3      		ldi r24,lo8(63)
 579 0182 8093 8800 		sts 136,r24
 335:main.c        ****     TIMSK1 |= ( 1 << OCIE1A );  // enable OCR1A match interrupt
 580               		.loc 3 335 0
 581 0186 EFE6      		ldi r30,lo8(111)
 582 0188 F0E0      		ldi r31,0
 583 018a 8081      		ld r24,Z
 584 018c 8260      		ori r24,lo8(2)
 585 018e 8083      		st Z,r24
 336:main.c        ****     TCCR1B |= (( 1 << WGM12 ) | ( 1 << CS12 ));	// start timer, CTC mode OCR1A match, ck/div by 256
 586               		.loc 3 336 0
 587 0190 E1E8      		ldi r30,lo8(-127)
 588 0192 F0E0      		ldi r31,0
 589 0194 8081      		ld r24,Z
 590 0196 8C60      		ori r24,lo8(12)
 591 0198 8083      		st Z,r24
 592 019a 0895      		ret
 593               		.cfi_endproc
 594               	.LFE16:
 596               	.global	adcInit
 598               	adcInit:
 599               	.LFB17:
 337:main.c        ****     
 338:main.c        ****     //~~~~~~~~~~~~~~~~~~***************** RTC Timer Configuration *****************~~~~~~~~~~~~~~~~
 339:main.c        **** }
 340:main.c        **** 
 341:main.c        **** 
 342:main.c        **** 
 343:main.c        **** 
 344:main.c        **** 
 345:main.c        **** void adcInit( void )
 346:main.c        **** {
 600               		.loc 3 346 0
 601               		.cfi_startproc
 602               	/* prologue: function */
 603               	/* frame size = 0 */
 604               	/* stack size = 0 */
 605               	.L__stack_usage = 0
 347:main.c        **** 	//~~~~~~~~~~~~~~~~~~******************** ADC Configuration ********************~~~~~~~~~~~~~~~~~~~
 348:main.c        **** 
 349:main.c        ****   	// ADC clock prescale of 1/128 for 128 kHz
 350:main.c        ****   	ADCSRA = ( ( 1 << ADEN ) | ( 1 << ADATE ) | ( 1 << ADIE ) | ( 1 << ADPS2 ) | ( 1 << ADPS1 ) | ( 
 606               		.loc 3 350 0
 607 019c 8FEA      		ldi r24,lo8(-81)
 608 019e 8093 7A00 		sts 122,r24
 351:main.c        ****   	
 352:main.c        ****   	ADCSRB |= (1<<ADTS2);
 609               		.loc 3 352 0
 610 01a2 EBE7      		ldi r30,lo8(123)
 611 01a4 F0E0      		ldi r31,0
 612 01a6 8081      		ld r24,Z
 613 01a8 8460      		ori r24,lo8(4)
 614 01aa 8083      		st Z,r24
 353:main.c        ****   	
 354:main.c        ****   	// Disable digital input buffers to save power.
 355:main.c        ****   	DIDR0 = ( ( 1 << ADC0D ) | ( 1 << ADC1D ) | ( 1 << ADC2D ) | ( 1 << ADC3D ) );
 615               		.loc 3 355 0
 616 01ac 8FE0      		ldi r24,lo8(15)
 617 01ae 8093 7E00 		sts 126,r24
 618 01b2 0895      		ret
 619               		.cfi_endproc
 620               	.LFE17:
 622               	.global	boostConverterInit
 624               	boostConverterInit:
 625               	.LFB18:
 356:main.c        **** 
 357:main.c        ****     //~~~~~~~~~~~~~~~~~~******************** ADC Configuration ********************~~~~~~~~~~~~~~~~
 358:main.c        **** }
 359:main.c        **** 
 360:main.c        **** 
 361:main.c        **** 
 362:main.c        **** 
 363:main.c        **** void boostConverterInit( void )
 364:main.c        **** {
 626               		.loc 3 364 0
 627               		.cfi_startproc
 628               	/* prologue: function */
 629               	/* frame size = 0 */
 630               	/* stack size = 0 */
 631               	.L__stack_usage = 0
 365:main.c        **** 	//~~~~~~~~~~~~~~~~~~************** Boost Converter Configuration **************~~~~~~~~~~~~~~~~~~~
 366:main.c        **** 
 367:main.c        **** 	// PWM Frequency: 64 kHz
 368:main.c        **** 	
 369:main.c        **** 	// Timer/Counter0: channel: A, clear on compare match ( non-inverting ), Fast PWM, TOP = 0xFF
 370:main.c        **** 	TCCR0A |= ((1<<COM0A1) | (1<<WGM01) | (1<<WGM00));
 632               		.loc 3 370 0
 633 01b4 84B5      		in r24,0x24
 634 01b6 8368      		ori r24,lo8(-125)
 635 01b8 84BD      		out 0x24,r24
 371:main.c        **** 	TCCR0B |= ( 1 << CS00 );	// internal clock as source, no prescale, start the timer
 636               		.loc 3 371 0
 637 01ba 85B5      		in r24,0x25
 638 01bc 8160      		ori r24,lo8(1)
 639 01be 85BD      		out 0x25,r24
 640 01c0 0895      		ret
 641               		.cfi_endproc
 642               	.LFE18:
 644               	.global	__vector_21
 646               	__vector_21:
 647               	.LFB19:
 372:main.c        **** 
 373:main.c        ****     //~~~~~~~~~~~~~~~~~~************** Boost Converter Configuration **************~~~~~~~~~~~~~~~~
 374:main.c        **** }
 375:main.c        **** 
 376:main.c        **** 
 377:main.c        **** 
 378:main.c        **** 
 379:main.c        **** 
 380:main.c        **** //~~~~~~~~~~~~~~~~~~~~~~******************** Functions ********************~~~~~~~~~~~~~~~~~~~~~~~~
 381:main.c        **** 
 382:main.c        **** // ADC interrupt service routine.
 383:main.c        **** // This is called at the completion of each ADC read cycle.
 384:main.c        **** // At the end of the ISR, the next conversion is started and we exit.
 385:main.c        **** ISR(ADC_vect) 
 386:main.c        **** {
 648               		.loc 3 386 0
 649               		.cfi_startproc
 650 01c2 1F92      		push r1
 651               	.LCFI11:
 652               		.cfi_def_cfa_offset 3
 653               		.cfi_offset 1, -2
 654 01c4 0F92      		push r0
 655               	.LCFI12:
 656               		.cfi_def_cfa_offset 4
 657               		.cfi_offset 0, -3
 658 01c6 0FB6      		in r0,__SREG__
 659 01c8 0F92      		push r0
 660 01ca 1124      		clr __zero_reg__
 661 01cc 8F93      		push r24
 662               	.LCFI13:
 663               		.cfi_def_cfa_offset 5
 664               		.cfi_offset 24, -4
 665 01ce 9F93      		push r25
 666               	.LCFI14:
 667               		.cfi_def_cfa_offset 6
 668               		.cfi_offset 25, -5
 669 01d0 EF93      		push r30
 670               	.LCFI15:
 671               		.cfi_def_cfa_offset 7
 672               		.cfi_offset 30, -6
 673 01d2 FF93      		push r31
 674               	.LCFI16:
 675               		.cfi_def_cfa_offset 8
 676               		.cfi_offset 31, -7
 677               	/* prologue: Signal */
 678               	/* frame size = 0 */
 679               	/* stack size = 7 */
 680               	.L__stack_usage = 7
 387:main.c        **** static unsigned char input_index=0;
 388:main.c        **** 
 389:main.c        **** // Read the AD conversion result
 390:main.c        ****    adc_raw[input_index]=ADCH;
 681               		.loc 3 390 0
 682 01d4 8091 0000 		lds r24,input_index.2181
 683 01d8 E82F      		mov r30,r24
 684 01da F0E0      		ldi r31,0
 685 01dc 9091 7900 		lds r25,121
 686 01e0 E050      		subi r30,lo8(-(adc_raw))
 687 01e2 F040      		sbci r31,hi8(-(adc_raw))
 688 01e4 9083      		st Z,r25
 391:main.c        ****    
 392:main.c        **** // Select next ADC input
 393:main.c        ****    if (++input_index >= ADC_CHANNELS)
 689               		.loc 3 393 0
 690 01e6 8F5F      		subi r24,lo8(-(1))
 691 01e8 8430      		cpi r24,lo8(4)
 692 01ea 00F4      		brsh .L26
 693 01ec 8093 0000 		sts input_index.2181,r24
 694 01f0 00C0      		rjmp .L27
 695               	.L26:
 394:main.c        ****       {
 395:main.c        ****       input_index=0;
 696               		.loc 3 395 0
 697 01f2 1092 0000 		sts input_index.2181,__zero_reg__
 698               	.L27:
 396:main.c        ****       }
 397:main.c        **** 
 398:main.c        ****    ADMUX=(FIRST_ADC_INPUT | ADC_VREF_TYPE | ( 1 << ADLAR ) ) + input_index; //and left adjust
 699               		.loc 3 398 0
 700 01f6 8091 0000 		lds r24,input_index.2181
 701 01fa 805A      		subi r24,lo8(-(96))
 702 01fc 8093 7C00 		sts 124,r24
 399:main.c        **** 
 400:main.c        **** // Start the AD conversion
 401:main.c        ****    ADCSRA |= (1<<ADSC);
 703               		.loc 3 401 0
 704 0200 8091 7A00 		lds r24,122
 705 0204 8064      		ori r24,lo8(64)
 706 0206 8093 7A00 		sts 122,r24
 707               	/* epilogue start */
 402:main.c        **** 
 403:main.c        **** } 
 708               		.loc 3 403 0
 709 020a FF91      		pop r31
 710 020c EF91      		pop r30
 711 020e 9F91      		pop r25
 712 0210 8F91      		pop r24
 713 0212 0F90      		pop r0
 714 0214 0FBE      		out __SREG__,r0
 715 0216 0F90      		pop r0
 716 0218 1F90      		pop r1
 717 021a 1895      		reti
 718               		.cfi_endproc
 719               	.LFE19:
 721               	.global	__vector_3
 723               	__vector_3:
 724               	.LFB20:
 404:main.c        **** 
 405:main.c        **** 
 406:main.c        **** 
 407:main.c        **** // External interrupt connected to the AC optocoupler.
 408:main.c        **** // Interrupt triggers on rising and falling edges, so double your AC_HERTZ.
 409:main.c        **** // This function will only be called so long as there is an AC input waveform.
 410:main.c        **** // For that reason, we do not need to code for when we lose AC power.  We just have
 411:main.c        **** // to say, if this function is called and we want to use the AC frequency as a timebase
 412:main.c        **** // then increment our seconds.  In ISR( TIMER1_COMPA_vect ) we have to have a bit more logic.
 413:main.c        **** ISR (PCINT0_vect)
 414:main.c        **** {
 725               		.loc 3 414 0
 726               		.cfi_startproc
 727 021c 1F92      		push r1
 728               	.LCFI17:
 729               		.cfi_def_cfa_offset 3
 730               		.cfi_offset 1, -2
 731 021e 0F92      		push r0
 732               	.LCFI18:
 733               		.cfi_def_cfa_offset 4
 734               		.cfi_offset 0, -3
 735 0220 0FB6      		in r0,__SREG__
 736 0222 0F92      		push r0
 737 0224 1124      		clr __zero_reg__
 738 0226 8F93      		push r24
 739               	.LCFI19:
 740               		.cfi_def_cfa_offset 5
 741               		.cfi_offset 24, -4
 742 0228 9F93      		push r25
 743               	.LCFI20:
 744               		.cfi_def_cfa_offset 6
 745               		.cfi_offset 25, -5
 746               	/* prologue: Signal */
 747               	/* frame size = 0 */
 748               	/* stack size = 5 */
 749               	.L__stack_usage = 5
 415:main.c        **** 	static uint8_t timebaseCounter = 0;		// For timekeeping
 416:main.c        **** 	
 417:main.c        **** 	timebaseCounter++;	// Counting AC cycles.
 750               		.loc 3 417 0
 751 022a 8091 0000 		lds r24,timebaseCounter.2187
 752 022e 8F5F      		subi r24,lo8(-(1))
 753 0230 8093 0000 		sts timebaseCounter.2187,r24
 418:main.c        **** 	
 419:main.c        **** 	if( acclock == 1 ){
 754               		.loc 3 419 0
 755 0234 9091 0000 		lds r25,acclock
 756 0238 9130      		cpi r25,lo8(1)
 757 023a 01F4      		brne .L29
 420:main.c        **** 	
 421:main.c        **** 		if( timebaseCounter > ( AC_HERTZ * 2 ) - 1 ){
 758               		.loc 3 421 0
 759 023c 8837      		cpi r24,lo8(120)
 760 023e 00F0      		brlo .L29
 422:main.c        **** 		
 423:main.c        **** 			seconds++;	// Increment the main seconds counter.
 761               		.loc 3 423 0
 762 0240 8091 0000 		lds r24,seconds
 763 0244 8F5F      		subi r24,lo8(-(1))
 764 0246 8093 0000 		sts seconds,r24
 424:main.c        **** 			
 425:main.c        **** 			timebaseCounter = 0;
 765               		.loc 3 425 0
 766 024a 1092 0000 		sts timebaseCounter.2187,__zero_reg__
 767               	.L29:
 426:main.c        **** 		}
 427:main.c        **** 		
 428:main.c        **** 	}
 429:main.c        **** 	
 430:main.c        **** 	acZeroCrossCounter++;	// For measuring the AC frequency - not used for timekeeping
 768               		.loc 3 430 0
 769 024e 8091 0000 		lds r24,acZeroCrossCounter
 770 0252 9091 0000 		lds r25,acZeroCrossCounter+1
 771 0256 0196      		adiw r24,1
 772 0258 9093 0000 		sts acZeroCrossCounter+1,r25
 773 025c 8093 0000 		sts acZeroCrossCounter,r24
 774               	/* epilogue start */
 431:main.c        **** 	
 432:main.c        **** }
 775               		.loc 3 432 0
 776 0260 9F91      		pop r25
 777 0262 8F91      		pop r24
 778 0264 0F90      		pop r0
 779 0266 0FBE      		out __SREG__,r0
 780 0268 0F90      		pop r0
 781 026a 1F90      		pop r1
 782 026c 1895      		reti
 783               		.cfi_endproc
 784               	.LFE20:
 786               	.global	toggle_led
 788               	toggle_led:
 789               	.LFB21:
 433:main.c        **** 
 434:main.c        **** 
 435:main.c        **** 
 436:main.c        **** 
 437:main.c        **** 
 438:main.c        **** void toggle_led()
 439:main.c        **** {
 790               		.loc 3 439 0
 791               		.cfi_startproc
 792               	/* prologue: function */
 793               	/* frame size = 0 */
 794               	/* stack size = 0 */
 795               	.L__stack_usage = 0
 440:main.c        ****     PORTD ^= ( 1 << LED );
 796               		.loc 3 440 0
 797 026e 8BB1      		in r24,0xb
 798 0270 8058      		subi r24,lo8(-(-128))
 799 0272 8BB9      		out 0xb,r24
 800 0274 0895      		ret
 801               		.cfi_endproc
 802               	.LFE21:
 804               	.global	blip_led
 806               	blip_led:
 807               	.LFB22:
 441:main.c        **** }
 442:main.c        **** 
 443:main.c        **** 
 444:main.c        **** 
 445:main.c        **** 
 446:main.c        **** 
 447:main.c        **** void blip_led()
 448:main.c        **** {
 808               		.loc 3 448 0
 809               		.cfi_startproc
 810               	/* prologue: function */
 811               	/* frame size = 0 */
 812               	/* stack size = 0 */
 813               	.L__stack_usage = 0
 449:main.c        ****     PORTD |= ( 1 << LED );	// on
 814               		.loc 3 449 0
 815 0276 5F9A      		sbi 0xb,7
 816               	.LVL56:
 817               	.LBB215:
 818               	.LBB216:
 819               	.LBB217:
 820               	.LBB218:
 821               		.loc 2 105 0
 822 0278 80E0      		ldi r24,0
 823 027a 90E3      		ldi r25,lo8(48)
 824               	/* #APP */
 825               	 ;  105 "/opt/local/lib/gcc/avr/4.7.2/../../../../avr/include/util/delay_basic.h" 1
 826 027c 0197      		1: sbiw r24,1
 827 027e 01F4      		brne 1b
 828               	 ;  0 "" 2
 829               	.LVL57:
 830               	/* #NOAPP */
 831               	.LBE218:
 832               	.LBE217:
 833               	.LBE216:
 834               	.LBE215:
 450:main.c        ****     _delay_ms(3);
 451:main.c        ****     PORTD &= ~( 1 << LED );	// off
 835               		.loc 3 451 0
 836 0280 5F98      		cbi 0xb,7
 837 0282 0895      		ret
 838               		.cfi_endproc
 839               	.LFE22:
 841               	.global	is_switch_pressed
 843               	is_switch_pressed:
 844               	.LFB23:
 452:main.c        **** }
 453:main.c        **** 
 454:main.c        **** 
 455:main.c        **** 
 456:main.c        **** 
 457:main.c        **** 
 458:main.c        **** int is_switch_pressed( char port, char pin, int ms_debounce, int ms_block )
 459:main.c        **** {
 845               		.loc 3 459 0
 846               		.cfi_startproc
 847               	.LVL58:
 848               	/* prologue: function */
 849               	/* frame size = 0 */
 850               	/* stack size = 0 */
 851               	.L__stack_usage = 0
 460:main.c        ****     
 461:main.c        ****     if ( !( port & ( 1 << pin ) ) )
 852               		.loc 3 461 0
 853 0284 282F      		mov r18,r24
 854               	.LVL59:
 855 0286 30E0      		ldi r19,0
 856 0288 00C0      		rjmp 2f
 857               		1:
 858 028a 3595      		asr r19
 859 028c 2795      		ror r18
 860               		2:
 861 028e 6A95      		dec r22
 862 0290 02F4      		brpl 1b
 863 0292 2170      		andi r18,1
 864 0294 3327      		clr r19
 462:main.c        ****     {
 463:main.c        ****         //_delay_ms( ms_debounce );
 464:main.c        ****         if ( !( port & ( 1 << pin ) ) ) return 1;
 865               		.loc 3 464 0
 866 0296 81E0      		ldi r24,1
 867 0298 2827      		eor r18,r24
 868               	.LVL60:
 465:main.c        ****     }
 466:main.c        ****     
 467:main.c        ****     return 0;
 468:main.c        **** }
 869               		.loc 3 468 0
 870 029a C901      		movw r24,r18
 871 029c 0895      		ret
 872               		.cfi_endproc
 873               	.LFE23:
 875               	.global	splitString
 877               	splitString:
 878               	.LFB24:
 469:main.c        **** 
 470:main.c        **** 
 471:main.c        **** 
 472:main.c        **** 
 473:main.c        **** uint32_t splitString(char aString[100])
 474:main.c        **** {
 879               		.loc 3 474 0
 880               		.cfi_startproc
 881               	.LVL61:
 882 029e CF93      		push r28
 883               	.LCFI21:
 884               		.cfi_def_cfa_offset 3
 885               		.cfi_offset 28, -2
 886 02a0 DF93      		push r29
 887               	.LCFI22:
 888               		.cfi_def_cfa_offset 4
 889               		.cfi_offset 29, -3
 890 02a2 CDB7      		in r28,__SP_L__
 891 02a4 DEB7      		in r29,__SP_H__
 892               	.LCFI23:
 893               		.cfi_def_cfa_register 28
 894 02a6 C456      		subi r28,100
 895 02a8 D109      		sbc r29,__zero_reg__
 896               	.LCFI24:
 897               		.cfi_def_cfa_offset 104
 898 02aa 0FB6      		in __tmp_reg__,__SREG__
 899 02ac F894      		cli
 900 02ae DEBF      		out __SP_H__,r29
 901 02b0 0FBE      		out __SREG__,__tmp_reg__
 902 02b2 CDBF      		out __SP_L__,r28
 903               	/* prologue: function */
 904               	/* frame size = 100 */
 905               	/* stack size = 102 */
 906               	.L__stack_usage = 102
 475:main.c        ****     
 476:main.c        ****     char *splitChar;
 477:main.c        ****     char subString[100];
 478:main.c        ****     
 479:main.c        ****     // find the equal symbol.  Var to the left, value to the right
 480:main.c        ****     splitChar = strchr( aString, '=');
 907               		.loc 3 480 0
 908 02b4 6DE3      		ldi r22,lo8(61)
 909 02b6 70E0      		ldi r23,0
 910 02b8 0E94 0000 		call strchr
 911               	.LVL62:
 481:main.c        ****     
 482:main.c        ****     strcpy(subString, splitChar + 1);
 912               		.loc 3 482 0
 913 02bc BC01      		movw r22,r24
 914 02be 6F5F      		subi r22,-1
 915 02c0 7F4F      		sbci r23,-1
 916 02c2 CE01      		movw r24,r28
 917               	.LVL63:
 918 02c4 0196      		adiw r24,1
 919 02c6 0E94 0000 		call strcpy
 920               	.LVL64:
 483:main.c        ****     
 484:main.c        ****     return atol( subString );
 921               		.loc 3 484 0
 922 02ca CE01      		movw r24,r28
 923 02cc 0196      		adiw r24,1
 924 02ce 0E94 0000 		call atol
 925               	.LVL65:
 926               	/* epilogue start */
 485:main.c        **** }
 927               		.loc 3 485 0
 928 02d2 CC59      		subi r28,-100
 929 02d4 DF4F      		sbci r29,-1
 930 02d6 0FB6      		in __tmp_reg__,__SREG__
 931 02d8 F894      		cli
 932 02da DEBF      		out __SP_H__,r29
 933 02dc 0FBE      		out __SREG__,__tmp_reg__
 934 02de CDBF      		out __SP_L__,r28
 935 02e0 DF91      		pop r29
 936 02e2 CF91      		pop r28
 937 02e4 0895      		ret
 938               		.cfi_endproc
 939               	.LFE24:
 941               	.global	copy_command
 943               	copy_command:
 944               	.LFB25:
 486:main.c        **** 
 487:main.c        **** 
 488:main.c        **** 
 489:main.c        **** 
 490:main.c        **** void copy_command ()
 491:main.c        **** {
 945               		.loc 3 491 0
 946               		.cfi_startproc
 947               	/* prologue: function */
 948               	/* frame size = 0 */
 949               	/* stack size = 0 */
 950               	.L__stack_usage = 0
 492:main.c        ****     // Move a copy of uartString to myuartString
 493:main.c        ****     memmove(myUartString, uartString, sizeof( myUartString ) );
 951               		.loc 3 493 0
 952 02e6 84E6      		ldi r24,lo8(100)
 953 02e8 E0E0      		ldi r30,lo8(uartString)
 954 02ea F0E0      		ldi r31,hi8(uartString)
 955 02ec A0E0      		ldi r26,lo8(myUartString)
 956 02ee B0E0      		ldi r27,hi8(myUartString)
 957               		0:
 958 02f0 0190      		ld r0,Z+
 959 02f2 0D92      		st X+,r0
 960 02f4 8A95      		dec r24
 961 02f6 01F4      		brne 0b
 494:main.c        ****     // Empty the uartString.
 495:main.c        ****     memset(uartString, 0, sizeof( myUartString ) );
 962               		.loc 3 495 0
 963 02f8 84E6      		ldi r24,lo8(100)
 964 02fa E0E0      		ldi r30,lo8(uartString)
 965 02fc F0E0      		ldi r31,hi8(uartString)
 966 02fe DF01      		movw r26,r30
 967               		0:
 968 0300 1D92      		st X+,__zero_reg__
 969 0302 8A95      		dec r24
 970 0304 01F4      		brne 0b
 971 0306 0895      		ret
 972               		.cfi_endproc
 973               	.LFE25:
 975               	.global	inRange
 977               	inRange:
 978               	.LFB26:
 496:main.c        **** }
 497:main.c        **** 
 498:main.c        **** 
 499:main.c        **** 
 500:main.c        **** 
 501:main.c        **** uint8_t inRange( uint32_t inputValue, uint32_t upperBound, uint32_t lowerBound )
 502:main.c        **** {
 979               		.loc 3 502 0
 980               		.cfi_startproc
 981               	.LVL66:
 982 0308 EF92      		push r14
 983               	.LCFI25:
 984               		.cfi_def_cfa_offset 3
 985               		.cfi_offset 14, -2
 986 030a FF92      		push r15
 987               	.LCFI26:
 988               		.cfi_def_cfa_offset 4
 989               		.cfi_offset 15, -3
 990 030c 0F93      		push r16
 991               	.LCFI27:
 992               		.cfi_def_cfa_offset 5
 993               		.cfi_offset 16, -4
 994 030e 1F93      		push r17
 995               	.LCFI28:
 996               		.cfi_def_cfa_offset 6
 997               		.cfi_offset 17, -5
 998               	/* prologue: function */
 999               	/* frame size = 0 */
 1000               	/* stack size = 4 */
 1001               	.L__stack_usage = 4
 503:main.c        **** 	if( inputValue >= lowerBound && inputValue <= upperBound )
 1002               		.loc 3 503 0
 1003 0310 6E15      		cp r22,r14
 1004 0312 7F05      		cpc r23,r15
 1005 0314 8007      		cpc r24,r16
 1006 0316 9107      		cpc r25,r17
 1007 0318 00F0      		brlo .L38
 1008               		.loc 3 503 0 is_stmt 0 discriminator 1
 1009 031a E1E0      		ldi r30,lo8(1)
 1010 031c 2617      		cp r18,r22
 1011 031e 3707      		cpc r19,r23
 1012 0320 4807      		cpc r20,r24
 1013 0322 5907      		cpc r21,r25
 1014 0324 00F4      		brsh .L36
 1015               	.L38:
 504:main.c        **** 	{
 505:main.c        **** 		return 1;
 506:main.c        **** 	}
 507:main.c        **** 	
 508:main.c        **** 	return 0;
 1016               		.loc 3 508 0 is_stmt 1
 1017 0326 E0E0      		ldi r30,0
 1018               	.L36:
 509:main.c        **** }
 1019               		.loc 3 509 0
 1020 0328 8E2F      		mov r24,r30
 1021               	/* epilogue start */
 1022 032a 1F91      		pop r17
 1023 032c 0F91      		pop r16
 1024 032e FF90      		pop r15
 1025 0330 EF90      		pop r14
 1026               	.LVL67:
 1027 0332 0895      		ret
 1028               		.cfi_endproc
 1029               	.LFE26:
 1031               		.section	.rodata.str1.1,"aMS",@progbits,1
 1032               	.LC1:
 1033 0000 3A20 00   		.string	": "
 1034               		.text
 1035               	.global	print_value
 1037               	print_value:
 1038               	.LFB28:
 510:main.c        **** 
 511:main.c        **** 
 512:main.c        **** 
 513:main.c        **** 
 514:main.c        **** 
 515:main.c        **** void process_command()
 516:main.c        **** {
 517:main.c        ****     if(strcasestr(myUartString,"hours") != NULL){
 518:main.c        ****         if(strcasestr(myUartString,"?") != NULL){
 519:main.c        ****             print_value("Hours", hours);
 520:main.c        ****         }else{
 521:main.c        ****         	if(strcasestr(myUartString,"=") != NULL){
 522:main.c        ****         		if( inRange( splitString(myUartString), 23, 0 ) )
 523:main.c        ****             		hours = splitString(myUartString);
 524:main.c        ****             }
 525:main.c        ****         }
 526:main.c        ****     }
 527:main.c        ****     
 528:main.c        ****     else if(strcasestr(myUartString,"minutes") != NULL){
 529:main.c        ****         if(strcasestr(myUartString,"?") != NULL){
 530:main.c        ****             print_value("Minutes", minutes);
 531:main.c        ****         }else{
 532:main.c        ****         	if(strcasestr(myUartString,"=") != NULL){
 533:main.c        ****         		if( inRange( splitString(myUartString), 59, 0 ) )
 534:main.c        ****             		minutes = splitString(myUartString);
 535:main.c        ****             }
 536:main.c        ****         }
 537:main.c        ****     }
 538:main.c        ****     
 539:main.c        ****     else if(strcasestr(myUartString,"seconds") != NULL){
 540:main.c        ****         if(strcasestr(myUartString,"?") != NULL){
 541:main.c        ****             print_value("Seconds", seconds);
 542:main.c        ****         }else{
 543:main.c        ****         	if(strcasestr(myUartString,"=") != NULL){
 544:main.c        ****         		if( inRange( splitString(myUartString), 59, 0 ) )
 545:main.c        ****             		seconds = splitString(myUartString);
 546:main.c        ****             }
 547:main.c        ****         }
 548:main.c        ****     }
 549:main.c        ****     
 550:main.c        ****     else if(strcasestr(myUartString,"mscal") != NULL){
 551:main.c        ****         if(strcasestr(myUartString,"?") != NULL){
 552:main.c        ****             print_value("mS Calibration", mscal);
 553:main.c        ****         }else{
 554:main.c        ****         	if(strcasestr(myUartString,"=") != NULL){
 555:main.c        ****         		if( inRange( splitString(myUartString), 4294967295, 0 ) )
 556:main.c        ****             		mscal = splitString(myUartString);
 557:main.c        ****             }
 558:main.c        ****         }
 559:main.c        ****     }
 560:main.c        ****     
 561:main.c        ****     else if(strcasestr(myUartString,"miltime") != NULL){
 562:main.c        ****         if(strcasestr(myUartString,"?") != NULL){
 563:main.c        ****             print_value("MIL Time", miltime);
 564:main.c        ****         }else{
 565:main.c        ****         	if(strcasestr(myUartString,"=") != NULL){
 566:main.c        ****         		if( inRange( splitString(myUartString), 1, 0 ) )
 567:main.c        ****             		miltime = splitString(myUartString);
 568:main.c        ****             }
 569:main.c        ****         }
 570:main.c        ****     }
 571:main.c        ****     
 572:main.c        ****     else if(strcasestr(myUartString,"year") != NULL){
 573:main.c        ****         if(strcasestr(myUartString,"?") != NULL){
 574:main.c        ****             print_value("Year", year);
 575:main.c        ****         }else{
 576:main.c        ****         	if(strcasestr(myUartString,"=") != NULL){
 577:main.c        ****         		if( inRange( splitString(myUartString), 2525, 0 ) )
 578:main.c        ****             		year = splitString(myUartString);
 579:main.c        ****             }
 580:main.c        ****         }
 581:main.c        ****     }
 582:main.c        ****     
 583:main.c        ****     else if(strcasestr(myUartString,"month") != NULL){
 584:main.c        ****         if(strcasestr(myUartString,"?") != NULL){
 585:main.c        ****             print_value("Month", month);
 586:main.c        ****         }else{
 587:main.c        ****         	if(strcasestr(myUartString,"=") != NULL){
 588:main.c        ****         		if( inRange( splitString(myUartString), 12, 0 ) )
 589:main.c        ****             		month = splitString(myUartString);
 590:main.c        ****             }
 591:main.c        ****         }
 592:main.c        ****     }
 593:main.c        ****     
 594:main.c        ****     else if(strcasestr(myUartString,"day") != NULL){
 595:main.c        ****         if(strcasestr(myUartString,"?") != NULL){
 596:main.c        ****             print_value("Day", day);
 597:main.c        ****         }else{
 598:main.c        ****         	if(strcasestr(myUartString,"=") != NULL){
 599:main.c        ****         		if( inRange( splitString(myUartString), 31, 0 ) )
 600:main.c        ****             		day = splitString(myUartString);
 601:main.c        ****             }
 602:main.c        ****         }
 603:main.c        ****     }
 604:main.c        ****     
 605:main.c        ****     else if(strcasestr(myUartString,"celsius") != NULL){
 606:main.c        ****         if(strcasestr(myUartString,"?") != NULL){
 607:main.c        ****             print_value("Celsius", celsius);
 608:main.c        ****         }else{
 609:main.c        ****         	if(strcasestr(myUartString,"=") != NULL){
 610:main.c        ****         		if( inRange( splitString(myUartString), 1, 0 ) )
 611:main.c        ****             		celsius = splitString(myUartString);
 612:main.c        ****             }
 613:main.c        ****         }
 614:main.c        ****     }
 615:main.c        ****     
 616:main.c        ****     else if(strcasestr(myUartString,"doecho") != NULL){
 617:main.c        ****         if(strcasestr(myUartString,"?") != NULL){
 618:main.c        ****             print_value("Do Echo", doecho);
 619:main.c        ****         }else{
 620:main.c        ****         	if(strcasestr(myUartString,"=") != NULL){
 621:main.c        ****         		if( inRange( splitString(myUartString), 1, 0 ) )
 622:main.c        ****             		doecho = splitString(myUartString);
 623:main.c        ****             }
 624:main.c        ****         }
 625:main.c        ****     }
 626:main.c        ****     
 627:main.c        ****     else if(strcasestr(myUartString,"acclock") != NULL){
 628:main.c        ****         if(strcasestr(myUartString,"?") != NULL){
 629:main.c        ****             print_value("AC Clock", acclock);
 630:main.c        ****         }else{
 631:main.c        ****         	if(strcasestr(myUartString,"=") != NULL){
 632:main.c        ****         		if( inRange( splitString(myUartString), 1, 0 ) )
 633:main.c        ****             		acclock = splitString(myUartString);
 634:main.c        ****             }
 635:main.c        ****         }
 636:main.c        ****     }
 637:main.c        ****     
 638:main.c        ****     else if(strcasestr(myUartString,"xtalisfast") != NULL){
 639:main.c        ****         if(strcasestr(myUartString,"?") != NULL){
 640:main.c        ****             print_value("xtalisfast", xtalisfast);
 641:main.c        ****         }else{
 642:main.c        ****         	if(strcasestr(myUartString,"=") != NULL){
 643:main.c        ****         		if( inRange( splitString(myUartString), 1, 0 ) )
 644:main.c        ****             		xtalisfast = splitString(myUartString);
 645:main.c        ****             }
 646:main.c        ****         }
 647:main.c        ****     }
 648:main.c        ****     
 649:main.c        **** 	else if(strcasestr(myUartString,"showtherm") != NULL){
 650:main.c        ****         if(strcasestr(myUartString,"?") != NULL){
 651:main.c        ****             print_value("Show Therm", showtherm);
 652:main.c        ****         }else{
 653:main.c        ****         	if(strcasestr(myUartString,"=") != NULL){
 654:main.c        ****         		if( inRange( splitString(myUartString), 1, 0 ) )
 655:main.c        ****             		showtherm = splitString(myUartString);
 656:main.c        ****             }
 657:main.c        ****         }
 658:main.c        ****     }
 659:main.c        ****     
 660:main.c        ****     else if(strcasestr(myUartString,"showfreq") != NULL){
 661:main.c        ****         if(strcasestr(myUartString,"?") != NULL){
 662:main.c        ****             print_value("Show Freq", showfreq);
 663:main.c        ****         }else{
 664:main.c        ****         	if(strcasestr(myUartString,"=") != NULL){
 665:main.c        ****         		if( inRange( splitString(myUartString), 1, 0 ) )
 666:main.c        ****             		showfreq = splitString(myUartString);
 667:main.c        ****             }
 668:main.c        ****         }
 669:main.c        ****     }
 670:main.c        **** 	
 671:main.c        **** 	else if(strcasestr(myUartString,"showdate") != NULL){
 672:main.c        ****         if(strcasestr(myUartString,"?") != NULL){
 673:main.c        ****             print_value("Show Date", showdate);
 674:main.c        ****         }else{
 675:main.c        ****         	if(strcasestr(myUartString,"=") != NULL){
 676:main.c        ****         		if( inRange( splitString(myUartString), 1, 0 ) )
 677:main.c        ****             		showdate = splitString(myUartString);
 678:main.c        ****             }
 679:main.c        ****         }
 680:main.c        ****     }
 681:main.c        ****     
 682:main.c        ****     else if(strcasestr(myUartString,"toggleled")!= NULL){
 683:main.c        ****         if(strcasestr(myUartString,"?") != NULL){
 684:main.c        ****             print_value("Toggle LED", toggleled);
 685:main.c        ****         }else{
 686:main.c        ****         	if(strcasestr(myUartString,"=") != NULL){
 687:main.c        ****         		if( inRange( splitString(myUartString), 1, 0 ) )
 688:main.c        ****             		toggleled = splitString(myUartString);
 689:main.c        ****             }
 690:main.c        ****         }
 691:main.c        ****     }
 692:main.c        ****     
 693:main.c        ****     else if(strcasestr(myUartString,"nixiesleepstart") != NULL){
 694:main.c        ****         if(strcasestr(myUartString,"?") != NULL){
 695:main.c        ****             print_value("Nixie Sleep Start Time", nixiesleepstart);
 696:main.c        ****         }else{
 697:main.c        ****         	if(strcasestr(myUartString,"=") != NULL){
 698:main.c        ****         		if( inRange( splitString(myUartString), 2358, 0 ) )
 699:main.c        ****             		nixiesleepstart = splitString(myUartString);
 700:main.c        ****             }
 701:main.c        ****         }
 702:main.c        ****     }
 703:main.c        ****     
 704:main.c        ****     else if(strcasestr(myUartString,"nixiesleepend") != NULL){
 705:main.c        ****         if(strcasestr(myUartString,"?") != NULL){
 706:main.c        ****             print_value("Nixie Sleep End Time", nixiesleepend);
 707:main.c        ****         }else{
 708:main.c        ****         	if(strcasestr(myUartString,"=") != NULL){
 709:main.c        ****         		if( inRange( splitString(myUartString), 2359, nixiesleepstart + 1 ) )
 710:main.c        ****             		nixiesleepend = splitString(myUartString);
 711:main.c        ****             }
 712:main.c        ****         }
 713:main.c        ****     }
 714:main.c        ****     
 715:main.c        ****     
 716:main.c        ****     else if(strcasestr(myUartString,"getall") != NULL){
 717:main.c        ****     	
 718:main.c        ****     	print_csv( ",", hours );					
 719:main.c        ****     	print_csv( ",", minutes );					
 720:main.c        ****     	print_csv( ",", seconds );					
 721:main.c        ****     	print_csv( ",", mscal );					
 722:main.c        ****     	print_csv( ",", miltime );					
 723:main.c        ****     	print_csv( ",", year );						
 724:main.c        ****     	print_csv( ",", month );					
 725:main.c        ****     	print_csv( ",", day );						
 726:main.c        ****     	print_csv( ",", celsius );					
 727:main.c        ****     	print_csv( ",", doecho );					
 728:main.c        ****     	print_csv( ",", xtalisfast );				
 729:main.c        ****     	print_csv( ",", showtherm );				
 730:main.c        ****     	print_csv( ",", showdate );					
 731:main.c        ****     	print_csv( ",", toggleled );				
 732:main.c        ****     	print_csv( ",", nixiesleepstart );			
 733:main.c        ****     	print_csv( ",", nixiesleepend );				
 734:main.c        ****     	print_csv( ",", SERIAL_NUMBER );			
 735:main.c        ****     	
 736:main.c        ****     	// PWR_OK
 737:main.c        ****     	double Volts = adc_raw[0] * 0.019375;
 738:main.c        ****         dtostrf(Volts , 10, 2, printBuffer);
 739:main.c        ****         uart_puts(printBuffer);
 740:main.c        ****         uart_puts(",");
 741:main.c        ****         
 742:main.c        ****         // HV_Feedback
 743:main.c        ****         Volts = adc_raw[1] * 1.9375;
 744:main.c        ****         dtostrf(Volts , 10, 2, printBuffer);
 745:main.c        ****         uart_puts(printBuffer);
 746:main.c        ****         uart_puts(",");
 747:main.c        ****         
 748:main.c        ****         // Battery Voltage
 749:main.c        ****         Volts = adc_raw[2] * 0.019375;
 750:main.c        ****         dtostrf(Volts , 10, 2, printBuffer);
 751:main.c        ****         uart_puts(printBuffer);
 752:main.c        ****         uart_puts(",");
 753:main.c        ****         
 754:main.c        ****         // Rectified AC voltage
 755:main.c        ****         Volts = adc_raw[3] * 0.11;
 756:main.c        ****         dtostrf(Volts , 10, 2, printBuffer);
 757:main.c        ****         uart_puts(printBuffer);
 758:main.c        ****     	
 759:main.c        ****     }
 760:main.c        ****     
 761:main.c        ****     else if(strcasestr(myUartString,"ramtoeeprom") != NULL){
 762:main.c        ****     	updateVarsToEeprom();   
 763:main.c        **** 		uart_puts( "EEPROM Storage Complete");
 764:main.c        ****     }
 765:main.c        ****     
 766:main.c        ****     else if(strstr(myUartString,"poke") != NULL){
 767:main.c        ****         
 768:main.c        ****         uart_puts( "Hello!");
 769:main.c        ****         uart_puts( RETURN_NEWLINE );
 770:main.c        ****         uart_puts( "I'm Serial Number: ");
 771:main.c        ****         uart_puts( itoa( SERIAL_NUMBER, printBuffer, 10 ) );
 772:main.c        ****         
 773:main.c        ****     }
 774:main.c        ****     
 775:main.c        ****     else if(strstr(myUartString,"pwrok") != NULL){
 776:main.c        ****         // ~0.019375 V/count
 777:main.c        ****         double pwrokVolts = adc_raw[0] * 0.019375;
 778:main.c        ****         dtostrf(pwrokVolts , 10, 2, printBuffer);
 779:main.c        ****         uart_puts(printBuffer);
 780:main.c        ****     }
 781:main.c        ****     
 782:main.c        ****     else if(strstr(myUartString,"hvfeedback") != NULL){
 783:main.c        ****         // ~1.9375 V/count
 784:main.c        ****         double hvVolts = adc_raw[1] * 1.9375;
 785:main.c        ****         dtostrf(hvVolts , 10, 2, printBuffer);
 786:main.c        ****         uart_puts(printBuffer);
 787:main.c        ****     }
 788:main.c        ****     
 789:main.c        ****     else if(strstr(myUartString,"battvoltage") != NULL){
 790:main.c        ****         // ~0.019375 V/count
 791:main.c        ****         double battVolts = adc_raw[2] * 0.019375;
 792:main.c        ****         dtostrf(battVolts , 10, 2, printBuffer);
 793:main.c        ****         uart_puts(printBuffer);
 794:main.c        ****     }
 795:main.c        ****     
 796:main.c        ****     else if(strstr(myUartString,"rectifiedac") != NULL){
 797:main.c        ****     	// 1K / 1K + 4K7 = 1K / 5K7 = ~0.175438 
 798:main.c        ****     	// 0.175 ^-1 = 5.7 
 799:main.c        ****         // ~0.11 V/count
 800:main.c        ****         double rectVolts = adc_raw[3] * 0.11;
 801:main.c        ****         dtostrf(rectVolts , 10, 2, printBuffer);
 802:main.c        ****         uart_puts(printBuffer);
 803:main.c        ****     }
 804:main.c        ****     uart_puts( RETURN_NEWLINE );
 805:main.c        **** }
 806:main.c        **** 
 807:main.c        **** // PWR_OK 			PC0		// adc_raw[0]
 808:main.c        **** // HV_FEEDBACK		PC1		// adc_raw[1]
 809:main.c        **** // BATT_VOLTAGE 	PC2		// adc_raw[2]
 810:main.c        **** // RECTIFIED_AC	    PC3		// adc_raw[3]
 811:main.c        **** 
 812:main.c        **** 
 813:main.c        **** 
 814:main.c        **** void print_value (char *id, uint32_t value)
 815:main.c        **** {
 1039               		.loc 3 815 0
 1040               		.cfi_startproc
 1041               	.LVL68:
 1042 0334 CF93      		push r28
 1043               	.LCFI29:
 1044               		.cfi_def_cfa_offset 3
 1045               		.cfi_offset 28, -2
 1046 0336 DF93      		push r29
 1047               	.LCFI30:
 1048               		.cfi_def_cfa_offset 4
 1049               		.cfi_offset 29, -3
 1050               	/* prologue: function */
 1051               	/* frame size = 0 */
 1052               	/* stack size = 2 */
 1053               	.L__stack_usage = 2
 1054 0338 EC01      		movw r28,r24
 1055 033a CB01      		movw r24,r22
 1056 033c BA01      		movw r22,r20
 816:main.c        ****     ultoa(value, printBuffer, 10);
 1057               		.loc 3 816 0
 1058 033e 2AE0      		ldi r18,lo8(10)
 1059 0340 30E0      		ldi r19,0
 1060 0342 40E0      		ldi r20,lo8(printBuffer)
 1061 0344 50E0      		ldi r21,hi8(printBuffer)
 1062               	.LVL69:
 1063 0346 0E94 0000 		call ultoa
 1064               	.LVL70:
 817:main.c        ****     uart_puts(id);
 1065               		.loc 3 817 0
 1066 034a CE01      		movw r24,r28
 1067 034c 0E94 0000 		call uart_puts
 1068               	.LVL71:
 818:main.c        ****     uart_puts(": ");
 1069               		.loc 3 818 0
 1070 0350 80E0      		ldi r24,lo8(.LC1)
 1071 0352 90E0      		ldi r25,hi8(.LC1)
 1072 0354 0E94 0000 		call uart_puts
 1073               	.LVL72:
 819:main.c        ****     uart_puts(printBuffer);
 1074               		.loc 3 819 0
 1075 0358 80E0      		ldi r24,lo8(printBuffer)
 1076 035a 90E0      		ldi r25,hi8(printBuffer)
 1077               	/* epilogue start */
 820:main.c        ****     //uart_puts(RETURN_NEWLINE);
 821:main.c        **** }
 1078               		.loc 3 821 0
 1079 035c DF91      		pop r29
 1080 035e CF91      		pop r28
 1081               	.LVL73:
 819:main.c        ****     uart_puts(printBuffer);
 1082               		.loc 3 819 0
 1083 0360 0C94 0000 		jmp uart_puts
 1084               	.LVL74:
 1085               		.cfi_endproc
 1086               	.LFE28:
 1088               	.global	print_csv
 1090               	print_csv:
 1091               	.LFB29:
 822:main.c        **** 
 823:main.c        **** 
 824:main.c        **** 
 825:main.c        **** void print_csv( char *id, uint32_t value )
 826:main.c        **** {
 1092               		.loc 3 826 0
 1093               		.cfi_startproc
 1094               	.LVL75:
 1095 0364 CF93      		push r28
 1096               	.LCFI31:
 1097               		.cfi_def_cfa_offset 3
 1098               		.cfi_offset 28, -2
 1099 0366 DF93      		push r29
 1100               	.LCFI32:
 1101               		.cfi_def_cfa_offset 4
 1102               		.cfi_offset 29, -3
 1103               	/* prologue: function */
 1104               	/* frame size = 0 */
 1105               	/* stack size = 2 */
 1106               	.L__stack_usage = 2
 1107 0368 EC01      		movw r28,r24
 1108 036a CB01      		movw r24,r22
 1109 036c BA01      		movw r22,r20
 827:main.c        ****     ultoa(value, printBuffer, 10);
 1110               		.loc 3 827 0
 1111 036e 2AE0      		ldi r18,lo8(10)
 1112 0370 30E0      		ldi r19,0
 1113 0372 40E0      		ldi r20,lo8(printBuffer)
 1114 0374 50E0      		ldi r21,hi8(printBuffer)
 1115               	.LVL76:
 1116 0376 0E94 0000 		call ultoa
 1117               	.LVL77:
 828:main.c        **** 
 829:main.c        ****     //uart_puts(": ");
 830:main.c        ****     uart_puts(printBuffer);
 1118               		.loc 3 830 0
 1119 037a 80E0      		ldi r24,lo8(printBuffer)
 1120 037c 90E0      		ldi r25,hi8(printBuffer)
 1121 037e 0E94 0000 		call uart_puts
 1122               	.LVL78:
 831:main.c        ****         uart_puts(id);
 1123               		.loc 3 831 0
 1124 0382 CE01      		movw r24,r28
 1125               	/* epilogue start */
 832:main.c        ****     //uart_puts(RETURN_NEWLINE);
 833:main.c        **** }
 1126               		.loc 3 833 0
 1127 0384 DF91      		pop r29
 1128 0386 CF91      		pop r28
 1129               	.LVL79:
 831:main.c        ****         uart_puts(id);
 1130               		.loc 3 831 0
 1131 0388 0C94 0000 		jmp uart_puts
 1132               	.LVL80:
 1133               		.cfi_endproc
 1134               	.LFE29:
 1136               		.section	.rodata.str1.1
 1137               	.LC2:
 1138 0003 4F4B 00   		.string	"OK"
 1139               	.LC3:
 1140 0006 0D0A 00   		.string	"\r\n"
 1141               		.text
 1142               	.global	uart_ok
 1144               	uart_ok:
 1145               	.LFB30:
 834:main.c        **** 
 835:main.c        **** 
 836:main.c        **** 
 837:main.c        **** 
 838:main.c        **** void uart_ok()
 839:main.c        **** {
 1146               		.loc 3 839 0
 1147               		.cfi_startproc
 1148               	/* prologue: function */
 1149               	/* frame size = 0 */
 1150               	/* stack size = 0 */
 1151               	.L__stack_usage = 0
 840:main.c        ****     uart_puts("OK");
 1152               		.loc 3 840 0
 1153 038c 80E0      		ldi r24,lo8(.LC2)
 1154 038e 90E0      		ldi r25,hi8(.LC2)
 1155 0390 0E94 0000 		call uart_puts
 1156               	.LVL81:
 841:main.c        ****     uart_puts(RETURN_NEWLINE);
 1157               		.loc 3 841 0
 1158 0394 80E0      		ldi r24,lo8(.LC3)
 1159 0396 90E0      		ldi r25,hi8(.LC3)
 1160 0398 0C94 0000 		jmp uart_puts
 1161               	.LVL82:
 1162               		.cfi_endproc
 1163               	.LFE30:
 1165               		.section	.rodata.str1.1
 1166               	.LC4:
 1167 0009 2F2F 7E7E 		.string	"//~~~~~~~~~~~~************ Nixie Clock Instructions ************~~~~~~~~~~~~~~"
 1167      7E7E 7E7E 
 1167      7E7E 7E7E 
 1167      7E7E 2A2A 
 1167      2A2A 2A2A 
 1168               	.LC5:
 1169 0058 4154 4D65 		.string	"ATMega328 Nixie Clock"
 1169      6761 3332 
 1169      3820 4E69 
 1169      7869 6520 
 1169      436C 6F63 
 1170               	.LC6:
 1171 006e 4368 6563 		.string	"Check petemills.blogspot.com for more info"
 1171      6B20 7065 
 1171      7465 6D69 
 1171      6C6C 732E 
 1171      626C 6F67 
 1172               	.LC7:
 1173 0099 5479 7065 		.string	"Type 'HOURS=10' to set the hours to '10'."
 1173      2027 484F 
 1173      5552 533D 
 1173      3130 2720 
 1173      746F 2073 
 1174               	.LC8:
 1175 00c3 5479 7065 		.string	"Type 'MINUTES=26' to set the minutes to '26'."
 1175      2027 4D49 
 1175      4E55 5445 
 1175      533D 3236 
 1175      2720 746F 
 1176               	.LC9:
 1177 00f1 5669 7369 		.string	"Visit the URL above to download a clock calibration app."
 1177      7420 7468 
 1177      6520 5552 
 1177      4C20 6162 
 1177      6F76 6520 
 1178               		.text
 1179               	.global	uartWelcome
 1181               	uartWelcome:
 1182               	.LFB32:
 842:main.c        **** }
 843:main.c        **** 
 844:main.c        **** 
 845:main.c        **** 
 846:main.c        **** 
 847:main.c        **** void checkSerialIn()
 848:main.c        **** {
 849:main.c        ****     
 850:main.c        ****     unsigned int aChar = uart_getc();
 851:main.c        ****     
 852:main.c        ****     if ( aChar & UART_NO_DATA )
 853:main.c        ****     {
 854:main.c        ****         
 855:main.c        ****          // No data available from UART
 856:main.c        **** 
 857:main.c        ****     }
 858:main.c        ****     else
 859:main.c        ****     {
 860:main.c        **** 
 861:main.c        ****         /*
 862:main.c        ****          * new data available from UART
 863:main.c        ****          * check for Frame or Overrun error
 864:main.c        ****          */
 865:main.c        ****         if ( aChar & UART_FRAME_ERROR )
 866:main.c        ****         {
 867:main.c        ****             /* Framing Error detected, i.e no stop bit detected */
 868:main.c        ****             uart_puts_P("UART Frame Error: ");
 869:main.c        ****         }
 870:main.c        ****         if ( aChar & UART_OVERRUN_ERROR )
 871:main.c        ****         {
 872:main.c        ****             /*
 873:main.c        ****              * Overrun, a character already present in the UART UDR register was
 874:main.c        ****              * not read by the interrupt handler before the next character arrived,
 875:main.c        ****              * one or more received characters have been dropped
 876:main.c        ****              */
 877:main.c        ****             uart_puts_P("UART Overrun Error: ");
 878:main.c        ****         }
 879:main.c        ****         if ( aChar & UART_BUFFER_OVERFLOW )
 880:main.c        ****         {
 881:main.c        ****             /*
 882:main.c        ****              * We are not reading the receive buffer fast enough,
 883:main.c        ****              * one or more received character have been dropped
 884:main.c        ****              */
 885:main.c        ****             uart_puts_P("Buffer overflow error: ");
 886:main.c        ****         }
 887:main.c        ****         /*
 888:main.c        ****          * send received character back
 889:main.c        ****          */
 890:main.c        ****         
 891:main.c        ****     // Add aChar to the growing string.
 892:main.c        ****     uartString[uartStringIndex] = aChar;
 893:main.c        ****     
 894:main.c        ****     // Keep going until we see a CHAR_RETURN.
 895:main.c        ****     if (uartString[uartStringIndex] == CHAR_RETURN) {
 896:main.c        ****         // Reset to 0, ready to go again
 897:main.c        ****         uartStringIndex = 0;
 898:main.c        ****         uart_puts(RETURN_NEWLINE);
 899:main.c        ****         
 900:main.c        ****         copy_command();
 901:main.c        ****         process_command();
 902:main.c        ****         }
 903:main.c        ****     else {
 904:main.c        ****         uartStringIndex++;
 905:main.c        ****     }
 906:main.c        ****     
 907:main.c        ****     if( doecho ){
 908:main.c        ****     	uart_putc( (unsigned char)aChar ); //echo
 909:main.c        ****     }
 910:main.c        ****         
 911:main.c        ****     }
 912:main.c        **** }
 913:main.c        **** 
 914:main.c        **** 
 915:main.c        **** 
 916:main.c        **** 
 917:main.c        **** void uartWelcome( void )
 918:main.c        **** {
 1183               		.loc 3 918 0
 1184               		.cfi_startproc
 1185               	/* prologue: function */
 1186               	/* frame size = 0 */
 1187               	/* stack size = 0 */
 1188               	.L__stack_usage = 0
 919:main.c        **** 
 920:main.c        ****     uart_puts("//~~~~~~~~~~~~************ Nixie Clock Instructions ************~~~~~~~~~~~~~~");
 1189               		.loc 3 920 0
 1190 039c 80E0      		ldi r24,lo8(.LC4)
 1191 039e 90E0      		ldi r25,hi8(.LC4)
 1192 03a0 0E94 0000 		call uart_puts
 1193               	.LVL83:
 921:main.c        ****     uart_puts(RETURN_NEWLINE);
 1194               		.loc 3 921 0
 1195 03a4 80E0      		ldi r24,lo8(.LC3)
 1196 03a6 90E0      		ldi r25,hi8(.LC3)
 1197 03a8 0E94 0000 		call uart_puts
 1198               	.LVL84:
 922:main.c        ****     uart_puts("ATMega328 Nixie Clock");
 1199               		.loc 3 922 0
 1200 03ac 80E0      		ldi r24,lo8(.LC5)
 1201 03ae 90E0      		ldi r25,hi8(.LC5)
 1202 03b0 0E94 0000 		call uart_puts
 1203               	.LVL85:
 923:main.c        ****     uart_puts(RETURN_NEWLINE);
 1204               		.loc 3 923 0
 1205 03b4 80E0      		ldi r24,lo8(.LC3)
 1206 03b6 90E0      		ldi r25,hi8(.LC3)
 1207 03b8 0E94 0000 		call uart_puts
 1208               	.LVL86:
 924:main.c        ****     uart_puts("Check petemills.blogspot.com for more info");
 1209               		.loc 3 924 0
 1210 03bc 80E0      		ldi r24,lo8(.LC6)
 1211 03be 90E0      		ldi r25,hi8(.LC6)
 1212 03c0 0E94 0000 		call uart_puts
 1213               	.LVL87:
 925:main.c        ****     uart_puts(RETURN_NEWLINE);
 1214               		.loc 3 925 0
 1215 03c4 80E0      		ldi r24,lo8(.LC3)
 1216 03c6 90E0      		ldi r25,hi8(.LC3)
 1217 03c8 0E94 0000 		call uart_puts
 1218               	.LVL88:
 926:main.c        ****     uart_puts(RETURN_NEWLINE);
 1219               		.loc 3 926 0
 1220 03cc 80E0      		ldi r24,lo8(.LC3)
 1221 03ce 90E0      		ldi r25,hi8(.LC3)
 1222 03d0 0E94 0000 		call uart_puts
 1223               	.LVL89:
 927:main.c        ****     uart_puts("Type 'HOURS=10' to set the hours to '10'.");
 1224               		.loc 3 927 0
 1225 03d4 80E0      		ldi r24,lo8(.LC7)
 1226 03d6 90E0      		ldi r25,hi8(.LC7)
 1227 03d8 0E94 0000 		call uart_puts
 1228               	.LVL90:
 928:main.c        ****     uart_puts(RETURN_NEWLINE);
 1229               		.loc 3 928 0
 1230 03dc 80E0      		ldi r24,lo8(.LC3)
 1231 03de 90E0      		ldi r25,hi8(.LC3)
 1232 03e0 0E94 0000 		call uart_puts
 1233               	.LVL91:
 929:main.c        ****     uart_puts("Type 'MINUTES=26' to set the minutes to '26'.");
 1234               		.loc 3 929 0
 1235 03e4 80E0      		ldi r24,lo8(.LC8)
 1236 03e6 90E0      		ldi r25,hi8(.LC8)
 1237 03e8 0E94 0000 		call uart_puts
 1238               	.LVL92:
 930:main.c        ****     uart_puts(RETURN_NEWLINE);
 1239               		.loc 3 930 0
 1240 03ec 80E0      		ldi r24,lo8(.LC3)
 1241 03ee 90E0      		ldi r25,hi8(.LC3)
 1242 03f0 0E94 0000 		call uart_puts
 1243               	.LVL93:
 931:main.c        ****     uart_puts("Visit the URL above to download a clock calibration app.");
 1244               		.loc 3 931 0
 1245 03f4 80E0      		ldi r24,lo8(.LC9)
 1246 03f6 90E0      		ldi r25,hi8(.LC9)
 1247 03f8 0E94 0000 		call uart_puts
 1248               	.LVL94:
 932:main.c        ****     uart_puts(RETURN_NEWLINE);
 1249               		.loc 3 932 0
 1250 03fc 80E0      		ldi r24,lo8(.LC3)
 1251 03fe 90E0      		ldi r25,hi8(.LC3)
 1252 0400 0E94 0000 		call uart_puts
 1253               	.LVL95:
 933:main.c        ****     uart_puts("//~~~~~~~~~~~~************ Nixie Clock Instructions ************~~~~~~~~~~~~~~");
 1254               		.loc 3 933 0
 1255 0404 80E0      		ldi r24,lo8(.LC4)
 1256 0406 90E0      		ldi r25,hi8(.LC4)
 1257 0408 0C94 0000 		jmp uart_puts
 1258               	.LVL96:
 1259               		.cfi_endproc
 1260               	.LFE32:
 1262               	.global	uartInit
 1264               	uartInit:
 1265               	.LFB33:
 934:main.c        **** }
 935:main.c        **** 
 936:main.c        **** 
 937:main.c        **** 
 938:main.c        **** 
 939:main.c        **** void uartInit( void )
 940:main.c        **** {
 1266               		.loc 3 940 0
 1267               		.cfi_startproc
 1268               	/* prologue: function */
 1269               	/* frame size = 0 */
 1270               	/* stack size = 0 */
 1271               	.L__stack_usage = 0
 941:main.c        ****         uart_init( UART_BAUD_SELECT(UART_BAUD_RATE,F_CPU) );
 1272               		.loc 3 941 0
 1273 040c 80E1      		ldi r24,lo8(16)
 1274 040e 90E0      		ldi r25,0
 1275 0410 0C94 0000 		jmp uart_init
 1276               	.LVL97:
 1277               		.cfi_endproc
 1278               	.LFE33:
 1280               		.section	.rodata.str1.1
 1281               	.LC10:
 1282 012a 2C20 00   		.string	", "
 1283               		.text
 1284               	.global	serialPrintDateTime
 1286               	serialPrintDateTime:
 1287               	.LFB36:
 942:main.c        **** }
 943:main.c        **** 
 944:main.c        **** 
 945:main.c        **** 
 946:main.c        **** 
 947:main.c        **** 
 948:main.c        **** // This interrupt is called at 1kHz
 949:main.c        **** // Here we are keeping track of milliseconds and adjusting them slightly to get 1 clock second
 950:main.c        **** // to equal 1 real world second very closely.
 951:main.c        **** // Set via serial comms,  mscal = F_CPU / (F_CPU * PPM_ERROR), then set fast or slow.
 952:main.c        **** ISR( TIMER1_COMPA_vect )
 953:main.c        **** {
 954:main.c        ****     static uint16_t milliSeconds = 0;		// mS value for timekeeping 1000mS/1S
 955:main.c        ****     static uint32_t clockCalCounter = 0;	// counting up the milliseconds to mscal
 956:main.c        ****     const uint16_t MS_IN_SEC = 1000;		// 1000mS/1S
 957:main.c        ****     static uint16_t acFreqFiltCtr = 0;		// this is incremented until it == AC_FRQ_FILT_SEC
 958:main.c        ****     milliSeconds++;
 959:main.c        ****     clockCalCounter++;
 960:main.c        ****     
 961:main.c        ****     
 962:main.c        ****     if( milliSeconds >= MS_IN_SEC )
 963:main.c        ****     {
 964:main.c        ****     	if( acclock == 0 || acPowerOk() == 0 ){	// If we are meant to use the internal xtal, not power
 965:main.c        ****     											// Or, if we loose AC power, and we are in AC clock mode we should step in and keep 
 966:main.c        ****         	seconds++;          // increment seconds
 967:main.c        ****         }
 968:main.c        ****         
 969:main.c        ****         	milliSeconds = 0;   // reset milliseconds
 970:main.c        ****         
 971:main.c        ****         	if( toggleled )		// Clearly toggling the LED is only available when using the internal xta
 972:main.c        ****         		toggle_led();	// Toggle the LED if allowed.
 973:main.c        ****         	acFreqFiltCtr++;	// Increment the frequency filter counter.	
 974:main.c        ****     }
 975:main.c        ****     
 976:main.c        ****     // For measuring the power line frequency.
 977:main.c        **** 	if( acFreqFiltCtr >= AC_FRQ_FILT_SEC )
 978:main.c        **** 	{
 979:main.c        **** 		acZeroCrossSnapshot = acZeroCrossCounter;	// Grab the current number of zero crossings since the 
 980:main.c        **** 		acZeroCrossCounter = 0;				// Reset the number of zero crossings.
 981:main.c        **** 		acFreqFlag = 1;						// Signal that a computation is ready to be made.
 982:main.c        **** 		acFreqFiltCtr = 0;					// Reset the measurement interval counter.
 983:main.c        **** 	}
 984:main.c        **** 
 985:main.c        ****     
 986:main.c        **** 
 987:main.c        ****     // Only adjust the time if mscal is not 0, this way we can disable the
 988:main.c        ****     // adjustment during the calibration procedure.
 989:main.c        ****     if( mscal != 0 )
 990:main.c        ****     {
 991:main.c        ****         if( xtalisfast == 1 )
 992:main.c        ****         {
 993:main.c        ****             if( ( clockCalCounter >= mscal ) && ( milliSeconds > 1 ))
 994:main.c        ****             {
 995:main.c        ****                 milliSeconds--;
 996:main.c        ****                 clockCalCounter = clockCalCounter - mscal;
 997:main.c        ****             }
 998:main.c        ****         }
 999:main.c        ****         else
1000:main.c        ****         {
1001:main.c        ****             // milliseconds must be less than 999 to avoid missing an adjustment.
1002:main.c        ****             // eg if milliseconds were to be 999 and we increment it here to 1000
1003:main.c        ****             // the next ISR call will make it 1001 and reset to zero just as if it
1004:main.c        ****             // would for 1000 and the adjustment would be effectively canceled out.
1005:main.c        ****             if( ( clockCalCounter >= mscal ) && ( milliSeconds < MS_IN_SEC - 1 ) )
1006:main.c        ****             {
1007:main.c        ****                 milliSeconds++;
1008:main.c        ****          
1009:main.c        ****                 // it may be that clock_cal_counter > than mscal in which case
1010:main.c        ****                 // I want to count the tick towards the next adjustment
1011:main.c        ****                 // should always be 1 or 0
1012:main.c        ****                 clockCalCounter = clockCalCounter - mscal;
1013:main.c        ****             }
1014:main.c        ****         }
1015:main.c        ****     }
1016:main.c        ****     
1017:main.c        ****     updateBoostConverter();	// Updated here for determinism.
1018:main.c        **** }
1019:main.c        **** 
1020:main.c        **** 
1021:main.c        **** 
1022:main.c        **** 
1023:main.c        **** void updateDateTime( void )
1024:main.c        **** {
1025:main.c        ****     uint8_t numDaysInMonth[] = {0,31,28,31,30,31,30,31,31,30,31,30,31};
1026:main.c        ****     
1027:main.c        ****     if( numDaysInMonth[2] == 28 && isLeapYear() )
1028:main.c        ****     {
1029:main.c        ****         numDaysInMonth[2] = 29;
1030:main.c        ****     }
1031:main.c        ****     else if( numDaysInMonth[2] == 29 )
1032:main.c        ****     {
1033:main.c        ****         numDaysInMonth[2] = 28;
1034:main.c        ****     }
1035:main.c        ****     
1036:main.c        ****     
1037:main.c        ****     if( seconds > 59 )
1038:main.c        ****     {
1039:main.c        ****         minutes++;		// increment minutes
1040:main.c        ****         seconds = 0;	// reset seconds
1041:main.c        ****     }
1042:main.c        ****     
1043:main.c        ****     if( minutes > 59 )
1044:main.c        ****     {
1045:main.c        ****         hours++;		// increment hours
1046:main.c        ****         minutes = 0; 	// reset minutes
1047:main.c        ****     }
1048:main.c        ****     
1049:main.c        ****     if( hours > 23 )
1050:main.c        ****     {
1051:main.c        ****         day++;          // increment day
1052:main.c        ****         hours = 0;		// reset hours
1053:main.c        ****     }
1054:main.c        ****     
1055:main.c        ****     if( day > numDaysInMonth[ month ] )
1056:main.c        ****     {
1057:main.c        ****         month++;        // increment the month
1058:main.c        ****         day = 1;        // reset the day counter to the first
1059:main.c        ****     }
1060:main.c        ****     
1061:main.c        ****     if( month > 12 )
1062:main.c        ****     {
1063:main.c        ****         year++;         // increment the year
1064:main.c        ****         month = 1;      // reset the month to january
1065:main.c        ****     }
1066:main.c        ****     
1067:main.c        ****     
1068:main.c        **** }
1069:main.c        **** 
1070:main.c        **** 
1071:main.c        **** 
1072:main.c        **** 
1073:main.c        **** void serialPrintDateTime( void )
1074:main.c        **** {
 1288               		.loc 3 1074 0
 1289               		.cfi_startproc
 1290               	/* prologue: function */
 1291               	/* frame size = 0 */
 1292               	/* stack size = 0 */
 1293               	.L__stack_usage = 0
1075:main.c        ****     //if( isLeapYear() )
1076:main.c        ****     //    uart_puts("L ");
1077:main.c        ****     // Print the date in YYYY.MM.DD format
1078:main.c        ****     uart_puts( itoa( year, printBuffer, 10 ) );
 1294               		.loc 3 1078 0
 1295 0414 4AE0      		ldi r20,lo8(10)
 1296 0416 50E0      		ldi r21,0
 1297 0418 60E0      		ldi r22,lo8(printBuffer)
 1298 041a 70E0      		ldi r23,hi8(printBuffer)
 1299 041c 8091 0000 		lds r24,year
 1300 0420 9091 0000 		lds r25,year+1
 1301 0424 0E94 0000 		call itoa
 1302               	.LVL98:
 1303 0428 0E94 0000 		call uart_puts
 1304               	.LVL99:
1079:main.c        ****     uart_putc('-');
 1305               		.loc 3 1079 0
 1306 042c 8DE2      		ldi r24,lo8(45)
 1307 042e 0E94 0000 		call uart_putc
 1308               	.LVL100:
1080:main.c        ****     
1081:main.c        ****     uart_puts( itoa( month, printBuffer, 10 ) );
 1309               		.loc 3 1081 0
 1310 0432 4AE0      		ldi r20,lo8(10)
 1311 0434 50E0      		ldi r21,0
 1312 0436 60E0      		ldi r22,lo8(printBuffer)
 1313 0438 70E0      		ldi r23,hi8(printBuffer)
 1314 043a 8091 0000 		lds r24,month
 1315 043e 90E0      		ldi r25,0
 1316 0440 0E94 0000 		call itoa
 1317               	.LVL101:
 1318 0444 0E94 0000 		call uart_puts
 1319               	.LVL102:
1082:main.c        ****     uart_putc('-');
 1320               		.loc 3 1082 0
 1321 0448 8DE2      		ldi r24,lo8(45)
 1322 044a 0E94 0000 		call uart_putc
 1323               	.LVL103:
1083:main.c        ****     
1084:main.c        ****     uart_puts( itoa( day, printBuffer, 10 ) );
 1324               		.loc 3 1084 0
 1325 044e 4AE0      		ldi r20,lo8(10)
 1326 0450 50E0      		ldi r21,0
 1327 0452 60E0      		ldi r22,lo8(printBuffer)
 1328 0454 70E0      		ldi r23,hi8(printBuffer)
 1329 0456 8091 0000 		lds r24,day
 1330 045a 90E0      		ldi r25,0
 1331 045c 0E94 0000 		call itoa
 1332               	.LVL104:
 1333 0460 0E94 0000 		call uart_puts
 1334               	.LVL105:
1085:main.c        ****     
1086:main.c        ****     uart_puts(", ");
 1335               		.loc 3 1086 0
 1336 0464 80E0      		ldi r24,lo8(.LC10)
 1337 0466 90E0      		ldi r25,hi8(.LC10)
 1338 0468 0E94 0000 		call uart_puts
 1339               	.LVL106:
1087:main.c        ****     
1088:main.c        ****     
1089:main.c        ****     if( miltime == 0  && hours > 12 )
 1340               		.loc 3 1089 0
 1341 046c 8091 0000 		lds r24,miltime
 1342 0470 8111      		cpse r24,__zero_reg__
 1343 0472 00C0      		rjmp .L45
 1344               		.loc 3 1089 0 is_stmt 0 discriminator 1
 1345 0474 8091 0000 		lds r24,hours
 1346 0478 8D30      		cpi r24,lo8(13)
 1347 047a 00F0      		brlo .L46
1090:main.c        ****     {
1091:main.c        ****         // Display the hours in 12 hour format.
1092:main.c        ****         uart_puts( itoa( hours - 12, printBuffer, 10 ) );
 1348               		.loc 3 1092 0 is_stmt 1
 1349 047c 90E0      		ldi r25,0
 1350 047e 4AE0      		ldi r20,lo8(10)
 1351 0480 50E0      		ldi r21,0
 1352 0482 60E0      		ldi r22,lo8(printBuffer)
 1353 0484 70E0      		ldi r23,hi8(printBuffer)
 1354 0486 0C97      		sbiw r24,12
 1355 0488 00C0      		rjmp .L48
 1356               	.L46:
1093:main.c        ****     }
1094:main.c        ****     else if( miltime == 0 && hours == 0 )
 1357               		.loc 3 1094 0 discriminator 1
 1358 048a 8111      		cpse r24,__zero_reg__
 1359 048c 00C0      		rjmp .L45
1095:main.c        ****     {
1096:main.c        ****         // Don't display '0' hours in 12-hour format, display "12" instead.
1097:main.c        ****         uart_puts( itoa( 12, printBuffer, 10 ) );
 1360               		.loc 3 1097 0
 1361 048e 4AE0      		ldi r20,lo8(10)
 1362 0490 50E0      		ldi r21,0
 1363 0492 60E0      		ldi r22,lo8(printBuffer)
 1364 0494 70E0      		ldi r23,hi8(printBuffer)
 1365 0496 8CE0      		ldi r24,lo8(12)
 1366 0498 90E0      		ldi r25,0
 1367 049a 00C0      		rjmp .L48
 1368               	.L45:
1098:main.c        ****     }
1099:main.c        ****     else
1100:main.c        ****     {
1101:main.c        ****         // Otherwise, everything is cool, just print the hours.
1102:main.c        ****         uart_puts( itoa( hours, printBuffer, 10 ) );
 1369               		.loc 3 1102 0
 1370 049c 4AE0      		ldi r20,lo8(10)
 1371 049e 50E0      		ldi r21,0
 1372 04a0 60E0      		ldi r22,lo8(printBuffer)
 1373 04a2 70E0      		ldi r23,hi8(printBuffer)
 1374 04a4 8091 0000 		lds r24,hours
 1375 04a8 90E0      		ldi r25,0
 1376               	.L48:
 1377 04aa 0E94 0000 		call itoa
 1378               	.LVL107:
 1379 04ae 0E94 0000 		call uart_puts
 1380               	.LVL108:
1103:main.c        ****     }
1104:main.c        ****     uart_putc(':');
 1381               		.loc 3 1104 0
 1382 04b2 8AE3      		ldi r24,lo8(58)
 1383 04b4 0E94 0000 		call uart_putc
 1384               	.LVL109:
1105:main.c        ****         
1106:main.c        ****     uart_puts( itoa( minutes, printBuffer, 10 ) );
 1385               		.loc 3 1106 0
 1386 04b8 4AE0      		ldi r20,lo8(10)
 1387 04ba 50E0      		ldi r21,0
 1388 04bc 60E0      		ldi r22,lo8(printBuffer)
 1389 04be 70E0      		ldi r23,hi8(printBuffer)
 1390 04c0 8091 0000 		lds r24,minutes
 1391 04c4 90E0      		ldi r25,0
 1392 04c6 0E94 0000 		call itoa
 1393               	.LVL110:
 1394 04ca 0E94 0000 		call uart_puts
 1395               	.LVL111:
1107:main.c        ****     uart_putc(':');
 1396               		.loc 3 1107 0
 1397 04ce 8AE3      		ldi r24,lo8(58)
 1398 04d0 0E94 0000 		call uart_putc
 1399               	.LVL112:
1108:main.c        ****         
1109:main.c        ****     uart_puts( itoa( seconds, printBuffer, 10 ) );
 1400               		.loc 3 1109 0
 1401 04d4 8091 0000 		lds r24,seconds
 1402 04d8 4AE0      		ldi r20,lo8(10)
 1403 04da 50E0      		ldi r21,0
 1404 04dc 60E0      		ldi r22,lo8(printBuffer)
 1405 04de 70E0      		ldi r23,hi8(printBuffer)
 1406 04e0 90E0      		ldi r25,0
 1407 04e2 0E94 0000 		call itoa
 1408               	.LVL113:
 1409 04e6 0E94 0000 		call uart_puts
 1410               	.LVL114:
1110:main.c        ****         
1111:main.c        ****     //uart_puts(RETURN_NEWLINE);
1112:main.c        ****     uart_putc( ',');
 1411               		.loc 3 1112 0
 1412 04ea 8CE2      		ldi r24,lo8(44)
 1413 04ec 0C94 0000 		jmp uart_putc
 1414               	.LVL115:
 1415               		.cfi_endproc
 1416               	.LFE36:
 1418               	.global	isLeapYear
 1420               	isLeapYear:
 1421               	.LFB37:
1113:main.c        **** 
1114:main.c        **** }
1115:main.c        **** 
1116:main.c        **** 
1117:main.c        **** 
1118:main.c        **** 
1119:main.c        **** uint8_t isLeapYear( void )
1120:main.c        **** {
 1422               		.loc 3 1120 0
 1423               		.cfi_startproc
 1424               	/* prologue: function */
 1425               	/* frame size = 0 */
 1426               	/* stack size = 0 */
 1427               	.L__stack_usage = 0
1121:main.c        ****     if( year % 4 != 0 )
 1428               		.loc 3 1121 0
 1429 04f0 2091 0000 		lds r18,year
 1430 04f4 3091 0000 		lds r19,year+1
 1431 04f8 C901      		movw r24,r18
 1432 04fa 8370      		andi r24,3
 1433 04fc 9927      		clr r25
 1434 04fe 892B      		or r24,r25
 1435 0500 01F4      		brne .L52
1122:main.c        ****     {
1123:main.c        ****         return 0;   // not a leap year
1124:main.c        ****     }
1125:main.c        ****     else if( year % 100 != 0 )
 1436               		.loc 3 1125 0
 1437 0502 C901      		movw r24,r18
 1438 0504 64E6      		ldi r22,lo8(100)
 1439 0506 70E0      		ldi r23,0
 1440 0508 0E94 0000 		call __udivmodhi4
 1441 050c 892B      		or r24,r25
 1442 050e 01F4      		brne .L53
1126:main.c        ****     {
1127:main.c        ****         return 1;   // it is a leap year
1128:main.c        ****     }
1129:main.c        ****     else if( year % 400 )
 1443               		.loc 3 1129 0
 1444 0510 C901      		movw r24,r18
 1445 0512 60E9      		ldi r22,lo8(-112)
 1446 0514 71E0      		ldi r23,lo8(1)
 1447 0516 0E94 0000 		call __udivmodhi4
 1448 051a 21E0      		ldi r18,lo8(1)
 1449 051c 892B      		or r24,r25
 1450 051e 01F0      		breq .L50
 1451               	.L52:
1123:main.c        ****         return 0;   // not a leap year
 1452               		.loc 3 1123 0
 1453 0520 20E0      		ldi r18,0
 1454 0522 00C0      		rjmp .L50
 1455               	.L53:
1127:main.c        ****         return 1;   // it is a leap year
 1456               		.loc 3 1127 0
 1457 0524 21E0      		ldi r18,lo8(1)
 1458               	.L50:
1130:main.c        ****     {
1131:main.c        ****         return 0;   // it is not a leap year
1132:main.c        ****     }
1133:main.c        ****     else
1134:main.c        ****     {
1135:main.c        ****         return 1;   // it is a leap year
1136:main.c        ****     }
1137:main.c        **** }
 1459               		.loc 3 1137 0
 1460 0526 822F      		mov r24,r18
 1461 0528 0895      		ret
 1462               		.cfi_endproc
 1463               	.LFE37:
 1465               		.section	.rodata
 1466               	.LC0:
 1467 0000 00        		.byte	0
 1468 0001 1F        		.byte	31
 1469 0002 1C        		.byte	28
 1470 0003 1F        		.byte	31
 1471 0004 1E        		.byte	30
 1472 0005 1F        		.byte	31
 1473 0006 1E        		.byte	30
 1474 0007 1F        		.byte	31
 1475 0008 1F        		.byte	31
 1476 0009 1E        		.byte	30
 1477 000a 1F        		.byte	31
 1478 000b 1E        		.byte	30
 1479 000c 1F        		.byte	31
 1480               		.text
 1481               	.global	updateDateTime
 1483               	updateDateTime:
 1484               	.LFB35:
1024:main.c        **** {
 1485               		.loc 3 1024 0
 1486               		.cfi_startproc
 1487 052a CF93      		push r28
 1488               	.LCFI33:
 1489               		.cfi_def_cfa_offset 3
 1490               		.cfi_offset 28, -2
 1491 052c DF93      		push r29
 1492               	.LCFI34:
 1493               		.cfi_def_cfa_offset 4
 1494               		.cfi_offset 29, -3
 1495 052e CDB7      		in r28,__SP_L__
 1496 0530 DEB7      		in r29,__SP_H__
 1497               	.LCFI35:
 1498               		.cfi_def_cfa_register 28
 1499 0532 2D97      		sbiw r28,13
 1500               	.LCFI36:
 1501               		.cfi_def_cfa_offset 17
 1502 0534 0FB6      		in __tmp_reg__,__SREG__
 1503 0536 F894      		cli
 1504 0538 DEBF      		out __SP_H__,r29
 1505 053a 0FBE      		out __SREG__,__tmp_reg__
 1506 053c CDBF      		out __SP_L__,r28
 1507               	/* prologue: function */
 1508               	/* frame size = 13 */
 1509               	/* stack size = 15 */
 1510               	.L__stack_usage = 15
1025:main.c        ****     uint8_t numDaysInMonth[] = {0,31,28,31,30,31,30,31,31,30,31,30,31};
 1511               		.loc 3 1025 0
 1512 053e 8DE0      		ldi r24,lo8(13)
 1513 0540 E0E0      		ldi r30,lo8(.LC0)
 1514 0542 F0E0      		ldi r31,hi8(.LC0)
 1515 0544 DE01      		movw r26,r28
 1516 0546 1196      		adiw r26,1
 1517               		0:
 1518 0548 0190      		ld r0,Z+
 1519 054a 0D92      		st X+,r0
 1520 054c 8A95      		dec r24
 1521 054e 01F4      		brne 0b
1027:main.c        ****     if( numDaysInMonth[2] == 28 && isLeapYear() )
 1522               		.loc 3 1027 0
 1523 0550 8B81      		ldd r24,Y+3
 1524 0552 8C31      		cpi r24,lo8(28)
 1525 0554 01F4      		brne .L58
1027:main.c        ****     if( numDaysInMonth[2] == 28 && isLeapYear() )
 1526               		.loc 3 1027 0 is_stmt 0 discriminator 1
 1527 0556 0E94 0000 		call isLeapYear
 1528               	.LVL116:
 1529 055a 8823      		tst r24
 1530 055c 01F0      		breq .L59
1029:main.c        ****         numDaysInMonth[2] = 29;
 1531               		.loc 3 1029 0 is_stmt 1
 1532 055e 8DE1      		ldi r24,lo8(29)
 1533 0560 00C0      		rjmp .L68
 1534               	.L58:
1031:main.c        ****     else if( numDaysInMonth[2] == 29 )
 1535               		.loc 3 1031 0
 1536 0562 8D31      		cpi r24,lo8(29)
 1537 0564 01F4      		brne .L59
1033:main.c        ****         numDaysInMonth[2] = 28;
 1538               		.loc 3 1033 0
 1539 0566 8CE1      		ldi r24,lo8(28)
 1540               	.L68:
 1541 0568 8B83      		std Y+3,r24
 1542               	.L59:
1037:main.c        ****     if( seconds > 59 )
 1543               		.loc 3 1037 0
 1544 056a 8091 0000 		lds r24,seconds
 1545 056e 8C33      		cpi r24,lo8(60)
 1546 0570 00F0      		brlo .L60
1039:main.c        ****         minutes++;		// increment minutes
 1547               		.loc 3 1039 0
 1548 0572 8091 0000 		lds r24,minutes
 1549 0576 8F5F      		subi r24,lo8(-(1))
 1550 0578 8093 0000 		sts minutes,r24
1040:main.c        ****         seconds = 0;	// reset seconds
 1551               		.loc 3 1040 0
 1552 057c 1092 0000 		sts seconds,__zero_reg__
 1553               	.L60:
1043:main.c        ****     if( minutes > 59 )
 1554               		.loc 3 1043 0
 1555 0580 8091 0000 		lds r24,minutes
 1556 0584 8C33      		cpi r24,lo8(60)
 1557 0586 00F0      		brlo .L61
1045:main.c        ****         hours++;		// increment hours
 1558               		.loc 3 1045 0
 1559 0588 8091 0000 		lds r24,hours
 1560 058c 8F5F      		subi r24,lo8(-(1))
 1561 058e 8093 0000 		sts hours,r24
1046:main.c        ****         minutes = 0; 	// reset minutes
 1562               		.loc 3 1046 0
 1563 0592 1092 0000 		sts minutes,__zero_reg__
 1564               	.L61:
1049:main.c        ****     if( hours > 23 )
 1565               		.loc 3 1049 0
 1566 0596 8091 0000 		lds r24,hours
 1567 059a 8831      		cpi r24,lo8(24)
 1568 059c 00F0      		brlo .L62
1051:main.c        ****         day++;          // increment day
 1569               		.loc 3 1051 0
 1570 059e 8091 0000 		lds r24,day
 1571 05a2 8F5F      		subi r24,lo8(-(1))
 1572 05a4 8093 0000 		sts day,r24
1052:main.c        ****         hours = 0;		// reset hours
 1573               		.loc 3 1052 0
 1574 05a8 1092 0000 		sts hours,__zero_reg__
 1575               	.L62:
1055:main.c        ****     if( day > numDaysInMonth[ month ] )
 1576               		.loc 3 1055 0
 1577 05ac 8091 0000 		lds r24,month
 1578 05b0 FE01      		movw r30,r28
 1579 05b2 E80F      		add r30,r24
 1580 05b4 F11D      		adc r31,__zero_reg__
 1581 05b6 2091 0000 		lds r18,day
 1582 05ba 9181      		ldd r25,Z+1
 1583 05bc 9217      		cp r25,r18
 1584 05be 00F4      		brsh .L63
1057:main.c        ****         month++;        // increment the month
 1585               		.loc 3 1057 0
 1586 05c0 8F5F      		subi r24,lo8(-(1))
 1587 05c2 8093 0000 		sts month,r24
1058:main.c        ****         day = 1;        // reset the day counter to the first
 1588               		.loc 3 1058 0
 1589 05c6 81E0      		ldi r24,lo8(1)
 1590 05c8 8093 0000 		sts day,r24
 1591               	.L63:
1061:main.c        ****     if( month > 12 )
 1592               		.loc 3 1061 0
 1593 05cc 8091 0000 		lds r24,month
 1594 05d0 8D30      		cpi r24,lo8(13)
 1595 05d2 00F0      		brlo .L57
1063:main.c        ****         year++;         // increment the year
 1596               		.loc 3 1063 0
 1597 05d4 8091 0000 		lds r24,year
 1598 05d8 9091 0000 		lds r25,year+1
 1599 05dc 0196      		adiw r24,1
 1600 05de 9093 0000 		sts year+1,r25
 1601 05e2 8093 0000 		sts year,r24
1064:main.c        ****         month = 1;      // reset the month to january
 1602               		.loc 3 1064 0
 1603 05e6 81E0      		ldi r24,lo8(1)
 1604 05e8 8093 0000 		sts month,r24
 1605               	.L57:
 1606               	/* epilogue start */
1068:main.c        **** }
 1607               		.loc 3 1068 0
 1608 05ec 2D96      		adiw r28,13
 1609 05ee 0FB6      		in __tmp_reg__,__SREG__
 1610 05f0 F894      		cli
 1611 05f2 DEBF      		out __SP_H__,r29
 1612 05f4 0FBE      		out __SREG__,__tmp_reg__
 1613 05f6 CDBF      		out __SP_L__,r28
 1614 05f8 DF91      		pop r29
 1615 05fa CF91      		pop r28
 1616 05fc 0895      		ret
 1617               		.cfi_endproc
 1618               	.LFE35:
 1620               	.global	dayOfWeek
 1622               	dayOfWeek:
 1623               	.LFB38:
1138:main.c        **** 
1139:main.c        **** 
1140:main.c        **** 
1141:main.c        **** 
1142:main.c        **** uint8_t dayOfWeek(uint8_t day, uint8_t month, uint16_t year)
1143:main.c        **** {
 1624               		.loc 3 1143 0
 1625               		.cfi_startproc
 1626               	.LVL117:
 1627 05fe CF93      		push r28
 1628               	.LCFI37:
 1629               		.cfi_def_cfa_offset 3
 1630               		.cfi_offset 28, -2
 1631 0600 DF93      		push r29
 1632               	.LCFI38:
 1633               		.cfi_def_cfa_offset 4
 1634               		.cfi_offset 29, -3
 1635               	/* prologue: function */
 1636               	/* frame size = 0 */
 1637               	/* stack size = 2 */
 1638               	.L__stack_usage = 2
 1639 0602 D82F      		mov r29,r24
 1640 0604 C62F      		mov r28,r22
 1641 0606 FA01      		movw r30,r20
1144:main.c        ****    // http://en.wikipedia.org/wiki/Zeller%27s_congruence
1145:main.c        ****    // returns 0 for monday thru 6 for sunday.
1146:main.c        ****    
1147:main.c        **** 	if( month < 3 ){
 1642               		.loc 3 1147 0
 1643 0608 6330      		cpi r22,lo8(3)
 1644 060a 00F4      		brsh .L70
1148:main.c        **** 		month += 12;
 1645               		.loc 3 1148 0
 1646 060c C45F      		subi r28,lo8(-(12))
 1647               	.LVL118:
1149:main.c        **** 		year--;
 1648               		.loc 3 1149 0
 1649 060e 3197      		sbiw r30,1
 1650               	.LVL119:
 1651               	.L70:
1150:main.c        ****    }
1151:main.c        ****    return ( ( 13 * month + 3 ) / 5 + day + year + ( year / 4 ) - ( year / 100 ) + ( year / 400 ) ) 
 1652               		.loc 3 1151 0
 1653 0610 9F01      		movw r18,r30
 1654 0612 3695      		lsr r19
 1655 0614 2795      		ror r18
 1656 0616 3695      		lsr r19
 1657 0618 2795      		ror r18
 1658               	.LVL120:
 1659 061a CF01      		movw r24,r30
 1660 061c 60E9      		ldi r22,lo8(-112)
 1661 061e 71E0      		ldi r23,lo8(1)
 1662 0620 0E94 0000 		call __udivmodhi4
 1663 0624 260F      		add r18,r22
 1664 0626 371F      		adc r19,r23
 1665 0628 2E0F      		add r18,r30
 1666 062a 3F1F      		adc r19,r31
 1667 062c CF01      		movw r24,r30
 1668 062e 64E6      		ldi r22,lo8(100)
 1669 0630 70E0      		ldi r23,0
 1670 0632 0E94 0000 		call __udivmodhi4
 1671 0636 261B      		sub r18,r22
 1672 0638 370B      		sbc r19,r23
 1673 063a 4DE0      		ldi r20,lo8(13)
 1674 063c C49F      		mul r28,r20
 1675 063e C001      		movw r24,r0
 1676 0640 1124      		clr __zero_reg__
 1677 0642 0396      		adiw r24,3
 1678 0644 65E0      		ldi r22,lo8(5)
 1679 0646 70E0      		ldi r23,0
 1680 0648 0E94 0000 		call __divmodhi4
 1681 064c 6D0F      		add r22,r29
 1682 064e 711D      		adc r23,__zero_reg__
 1683 0650 260F      		add r18,r22
 1684 0652 371F      		adc r19,r23
 1685 0654 C901      		movw r24,r18
 1686 0656 67E0      		ldi r22,lo8(7)
 1687 0658 70E0      		ldi r23,0
 1688 065a 0E94 0000 		call __udivmodhi4
 1689               	/* epilogue start */
1152:main.c        **** }
 1690               		.loc 3 1152 0
 1691 065e DF91      		pop r29
 1692               	.LVL121:
 1693 0660 CF91      		pop r28
 1694               	.LVL122:
 1695 0662 0895      		ret
 1696               		.cfi_endproc
 1697               	.LFE38:
 1699               	.global	readTemperature
 1701               	readTemperature:
 1702               	.LFB39:
1153:main.c        **** 
1154:main.c        **** 
1155:main.c        **** 
1156:main.c        **** 
1157:main.c        **** double readTemperature( void )
1158:main.c        **** {
 1703               		.loc 3 1158 0
 1704               		.cfi_startproc
 1705               	/* prologue: function */
 1706               	/* frame size = 0 */
 1707               	/* stack size = 0 */
 1708               	.L__stack_usage = 0
1159:main.c        ****     celsiusTemperature = ds18b20_gettemp();
 1709               		.loc 3 1159 0
 1710 0664 0E94 0000 		call ds18b20_gettemp
 1711               	.LVL123:
 1712 0668 9B01      		movw r18,r22
 1713 066a 462F      		mov r20,r22
 1714 066c 532F      		mov r21,r19
 1715 066e 682F      		mov r22,r24
 1716 0670 792F      		mov r23,r25
 1717 0672 4093 0000 		sts celsiusTemperature,r20
 1718 0676 5093 0000 		sts celsiusTemperature+1,r21
 1719 067a 6093 0000 		sts celsiusTemperature+2,r22
 1720 067e 7093 0000 		sts celsiusTemperature+3,r23
1160:main.c        ****     
1161:main.c        ****     return celsiusTemperature;
1162:main.c        **** }
 1721               		.loc 3 1162 0
 1722 0682 622F      		mov r22,r18
 1723 0684 732F      		mov r23,r19
 1724 0686 0895      		ret
 1725               		.cfi_endproc
 1726               	.LFE39:
 1728               	.global	updateBoostConverter
 1730               	updateBoostConverter:
 1731               	.LFB40:
1163:main.c        **** 
1164:main.c        **** 
1165:main.c        **** 
1166:main.c        **** 
1167:main.c        **** void updateBoostConverter( void )
1168:main.c        **** {
 1732               		.loc 3 1168 0
 1733               		.cfi_startproc
 1734               	/* prologue: function */
 1735               	/* frame size = 0 */
 1736               	/* stack size = 0 */
 1737               	.L__stack_usage = 0
1169:main.c        **** 
1170:main.c        ****     // The input to HV_FEEDBACK is a voltage divider with 470k0 and 4k7 resistors.
1171:main.c        ****     // Therefore the voltage present will be about 10% of the boost converter output.
1172:main.c        ****     // 175 V DC on the boost converter will be about 1.75 V DC input to the ADC
1173:main.c        ****     
1174:main.c        ****     // The ADC results are continuously stored as 8-bit results in array location adc_raw[1]
1175:main.c        ****     // 5 v / 8 bits = ~0.019685 V/count, or 50.8 counts/V
1176:main.c        ****     
1177:main.c        ****     // ex. 50 V on the boost converter is 0.5 V to the ADC.  0.5 V in counts is 25.4
1178:main.c        ****     //    175 V on the boost converter is 1.75V to the ADC.  1.75V in counts is 88.9
1179:main.c        ****     
1180:main.c        ****     uint16_t myVoltage = adc_raw[1];	// HV_FEEDBACK
 1738               		.loc 3 1180 0
 1739 0688 8091 0000 		lds r24,adc_raw+1
 1740               	.LVL124:
1181:main.c        ****     
1182:main.c        **** 	if( myVoltage > 89 )
 1741               		.loc 3 1182 0
 1742 068c 8A35      		cpi r24,lo8(90)
 1743 068e 00F0      		brlo .L73
1183:main.c        **** 	{
1184:main.c        **** 		boostConverterPwm = boostLowPwm;
 1744               		.loc 3 1184 0
 1745 0690 8091 0000 		lds r24,boostLowPwm
 1746               	.LVL125:
 1747 0694 00C0      		rjmp .L75
 1748               	.LVL126:
 1749               	.L73:
1185:main.c        **** 		//boostConverterPwm--;
1186:main.c        **** 	}
1187:main.c        **** 	else 
1188:main.c        **** 	{
1189:main.c        **** 		boostConverterPwm = boostHighPwm;
 1750               		.loc 3 1189 0
 1751 0696 8091 0000 		lds r24,boostHighPwm
 1752               	.LVL127:
 1753               	.L75:
 1754 069a 8093 0000 		sts boostConverterPwm,r24
1190:main.c        **** 		//boostConverterPwm++;
1191:main.c        **** 	}
1192:main.c        **** 	
1193:main.c        **** 	OCR0A = boostConverterPwm;        
 1755               		.loc 3 1193 0
 1756 069e 8091 0000 		lds r24,boostConverterPwm
 1757 06a2 87BD      		out 0x27,r24
 1758 06a4 0895      		ret
 1759               		.cfi_endproc
 1760               	.LFE40:
 1762               	.global	__divsf3
 1763               	.global	updateTemperatureFilter
 1765               	updateTemperatureFilter:
 1766               	.LFB41:
1194:main.c        **** 
1195:main.c        **** }
1196:main.c        **** 
1197:main.c        **** 
1198:main.c        **** 
1199:main.c        **** 
1200:main.c        **** 
1201:main.c        **** 
1202:main.c        **** void updateTemperatureFilter( uint8_t moduloSeconds )
1203:main.c        **** {
 1767               		.loc 3 1203 0
 1768               		.cfi_startproc
 1769               	.LVL128:
 1770 06a6 0F93      		push r16
 1771               	.LCFI39:
 1772               		.cfi_def_cfa_offset 3
 1773               		.cfi_offset 16, -2
 1774 06a8 1F93      		push r17
 1775               	.LCFI40:
 1776               		.cfi_def_cfa_offset 4
 1777               		.cfi_offset 17, -3
 1778 06aa CF93      		push r28
 1779               	.LCFI41:
 1780               		.cfi_def_cfa_offset 5
 1781               		.cfi_offset 28, -4
 1782 06ac DF93      		push r29
 1783               	.LCFI42:
 1784               		.cfi_def_cfa_offset 6
 1785               		.cfi_offset 29, -5
 1786               	/* prologue: function */
 1787               	/* frame size = 0 */
 1788               	/* stack size = 4 */
 1789               	.L__stack_usage = 4
 1790 06ae 682F      		mov r22,r24
1204:main.c        **** 	if( seconds % moduloSeconds == 0 )
 1791               		.loc 3 1204 0
 1792 06b0 8091 0000 		lds r24,seconds
 1793               	.LVL129:
 1794 06b4 0E94 0000 		call __udivmodqi4
 1795 06b8 9111      		cpse r25,__zero_reg__
 1796 06ba 00C0      		rjmp .L76
 1797 06bc 00E0      		ldi r16,lo8(movingAverageArray)
 1798 06be 10E0      		ldi r17,hi8(movingAverageArray)
 1799 06c0 C0E0      		ldi r28,0
 1800 06c2 D0E0      		ldi r29,0
 1801               	.LVL130:
 1802               	.L80:
 1803               	.LBB219:
1205:main.c        ****     {
1206:main.c        ****             
1207:main.c        ****         // FIR
1208:main.c        ****             
1209:main.c        ****         for( int i = 0; i < TEMPERATURE_ARRAY_SIZE; i++ )
1210:main.c        ****         {
1211:main.c        ****             if( i < TEMPERATURE_ARRAY_SIZE - 1 )
 1804               		.loc 3 1211 0
 1805 06c4 C530      		cpi r28,5
 1806 06c6 D105      		cpc r29,__zero_reg__
 1807 06c8 01F0      		breq .L78
1212:main.c        ****             {
1213:main.c        ****                 movingAverageArray[ i ] = movingAverageArray[ i + 1 ];
 1808               		.loc 3 1213 0
 1809 06ca F801      		movw r30,r16
 1810 06cc 8481      		ldd r24,Z+4
 1811 06ce 9581      		ldd r25,Z+5
 1812 06d0 A681      		ldd r26,Z+6
 1813 06d2 B781      		ldd r27,Z+7
 1814 06d4 8083      		st Z,r24
 1815 06d6 9183      		std Z+1,r25
 1816 06d8 A283      		std Z+2,r26
 1817 06da B383      		std Z+3,r27
 1818 06dc 00C0      		rjmp .L79
 1819               	.L78:
1214:main.c        ****             }
1215:main.c        ****             else
1216:main.c        ****             {
1217:main.c        ****                 movingAverageArray[ i ] = readTemperature();
 1820               		.loc 3 1217 0
 1821 06de 0E94 0000 		call readTemperature
 1822               	.LVL131:
 1823 06e2 6093 0000 		sts movingAverageArray+20,r22
 1824 06e6 7093 0000 		sts movingAverageArray+20+1,r23
 1825 06ea 8093 0000 		sts movingAverageArray+20+2,r24
 1826 06ee 9093 0000 		sts movingAverageArray+20+3,r25
 1827               	.L79:
1209:main.c        ****         for( int i = 0; i < TEMPERATURE_ARRAY_SIZE; i++ )
 1828               		.loc 3 1209 0
 1829 06f2 2196      		adiw r28,1
 1830               	.LVL132:
 1831 06f4 0C5F      		subi r16,-4
 1832 06f6 1F4F      		sbci r17,-1
 1833 06f8 C630      		cpi r28,6
 1834 06fa D105      		cpc r29,__zero_reg__
 1835 06fc 01F4      		brne .L80
 1836               	.LVL133:
 1837 06fe C0E0      		ldi r28,lo8(movingAverageArray)
 1838 0700 D0E0      		ldi r29,hi8(movingAverageArray)
 1839               	.LVL134:
 1840               	.LBE219:
1202:main.c        **** void updateTemperatureFilter( uint8_t moduloSeconds )
 1841               		.loc 3 1202 0
 1842 0702 F0E0      		ldi r31,0
 1843 0704 E0E0      		ldi r30,0
 1844 0706 80E0      		ldi r24,0
 1845 0708 90E0      		ldi r25,0
 1846               	.LVL135:
 1847               	.L81:
 1848               	.LBB220:
1218:main.c        ****             }
1219:main.c        ****                 
1220:main.c        ****         }
1221:main.c        ****             
1222:main.c        ****         arraySum = 0;
1223:main.c        ****             
1224:main.c        ****         for( int i = 0; i < TEMPERATURE_ARRAY_SIZE; i++ )
1225:main.c        ****         {
1226:main.c        ****             arraySum += movingAverageArray[ i ];
 1849               		.loc 3 1226 0 discriminator 2
 1850 070a 2991      		ld r18,Y+
 1851 070c 3991      		ld r19,Y+
 1852 070e 4991      		ld r20,Y+
 1853 0710 5991      		ld r21,Y+
 1854 0712 0F2F      		mov r16,r31
 1855 0714 1E2F      		mov r17,r30
 1856 0716 B801      		movw r22,r16
 1857 0718 0E94 0000 		call __addsf3
 1858               	.LVL136:
 1859 071c F62F      		mov r31,r22
 1860 071e E72F      		mov r30,r23
1224:main.c        ****         for( int i = 0; i < TEMPERATURE_ARRAY_SIZE; i++ )
 1861               		.loc 3 1224 0 discriminator 2
 1862 0720 20E0      		ldi r18,hi8(movingAverageArray+24)
 1863 0722 C030      		cpi r28,lo8(movingAverageArray+24)
 1864 0724 D207      		cpc r29,r18
 1865 0726 01F4      		brne .L81
 1866 0728 DF01      		movw r26,r30
 1867 072a 4B2F      		mov r20,r27
 1868 072c 5A2F      		mov r21,r26
 1869 072e 682F      		mov r22,r24
 1870 0730 792F      		mov r23,r25
 1871 0732 4093 0000 		sts arraySum,r20
 1872 0736 5093 0000 		sts arraySum+1,r21
 1873 073a 6093 0000 		sts arraySum+2,r22
 1874 073e 7093 0000 		sts arraySum+3,r23
 1875               	.LBE220:
1227:main.c        ****         }
1228:main.c        ****             
1229:main.c        **** 		averageCelsiusTemperature = arraySum / TEMPERATURE_ARRAY_SIZE;       
 1876               		.loc 3 1229 0
 1877 0742 20E0      		ldi r18,0
 1878 0744 30E0      		ldi r19,0
 1879 0746 40EC      		ldi r20,lo8(-64)
 1880 0748 50E4      		ldi r21,lo8(64)
 1881 074a EF01      		movw r28,r30
 1882 074c 6D2F      		mov r22,r29
 1883 074e 7C2F      		mov r23,r28
 1884 0750 0E94 0000 		call __divsf3
 1885               	.LVL137:
 1886 0754 6093 0000 		sts averageCelsiusTemperature,r22
 1887 0758 7093 0000 		sts averageCelsiusTemperature+1,r23
 1888 075c 8093 0000 		sts averageCelsiusTemperature+2,r24
 1889 0760 9093 0000 		sts averageCelsiusTemperature+3,r25
 1890               	.L76:
 1891               	/* epilogue start */
1230:main.c        ****     }
1231:main.c        **** }
 1892               		.loc 3 1231 0
 1893 0764 DF91      		pop r29
 1894 0766 CF91      		pop r28
 1895 0768 1F91      		pop r17
 1896 076a 0F91      		pop r16
 1897 076c 0895      		ret
 1898               		.cfi_endproc
 1899               	.LFE41:
 1901               	.global	serialPrintTemperature
 1903               	serialPrintTemperature:
 1904               	.LFB42:
1232:main.c        **** 
1233:main.c        **** 
1234:main.c        **** 
1235:main.c        **** 
1236:main.c        **** void serialPrintTemperature( void )
1237:main.c        **** {
 1905               		.loc 3 1237 0
 1906               		.cfi_startproc
 1907 076e 0F93      		push r16
 1908               	.LCFI43:
 1909               		.cfi_def_cfa_offset 3
 1910               		.cfi_offset 16, -2
 1911 0770 1F93      		push r17
 1912               	.LCFI44:
 1913               		.cfi_def_cfa_offset 4
 1914               		.cfi_offset 17, -3
 1915               	/* prologue: function */
 1916               	/* frame size = 0 */
 1917               	/* stack size = 2 */
 1918               	.L__stack_usage = 2
1238:main.c        **** 	if( celsius == 1 )
 1919               		.loc 3 1238 0
 1920 0772 8091 0000 		lds r24,celsius
 1921 0776 8130      		cpi r24,lo8(1)
 1922 0778 01F4      		brne .L85
1239:main.c        ****         {
1240:main.c        ****             //dtostrf(readTemperature(), 10, 3, printBuffer);
1241:main.c        ****             dtostrf(averageCelsiusTemperature, 10, 3, printBuffer);
 1923               		.loc 3 1241 0
 1924 077a 6091 0000 		lds r22,averageCelsiusTemperature
 1925 077e 7091 0000 		lds r23,averageCelsiusTemperature+1
 1926 0782 8091 0000 		lds r24,averageCelsiusTemperature+2
 1927 0786 9091 0000 		lds r25,averageCelsiusTemperature+3
 1928 078a 00C0      		rjmp .L87
 1929               	.L85:
 1930               	.LVL138:
 1931               	.LBB221:
1242:main.c        **** 
1243:main.c        ****             //uart_puts(", Temperature: ");
1244:main.c        ****             //uart_putc( ',');
1245:main.c        ****             uart_puts(printBuffer); //uart_puts( RETURN_NEWLINE );
1246:main.c        ****         }
1247:main.c        ****         else
1248:main.c        ****         {
1249:main.c        ****             //double tempF = ( readTemperature() * 1.8 ) + 32;
1250:main.c        ****             double tempF = ( averageCelsiusTemperature * 1.8 ) + 32;
 1932               		.loc 3 1250 0
 1933 078c 26E6      		ldi r18,lo8(102)
 1934 078e 36E6      		ldi r19,lo8(102)
 1935 0790 46EE      		ldi r20,lo8(-26)
 1936 0792 5FE3      		ldi r21,lo8(63)
 1937 0794 6091 0000 		lds r22,averageCelsiusTemperature
 1938 0798 7091 0000 		lds r23,averageCelsiusTemperature+1
 1939 079c 8091 0000 		lds r24,averageCelsiusTemperature+2
 1940 07a0 9091 0000 		lds r25,averageCelsiusTemperature+3
 1941 07a4 0E94 0000 		call __mulsf3
 1942               	.LVL139:
 1943 07a8 20E0      		ldi r18,0
 1944 07aa 30E0      		ldi r19,0
 1945 07ac 40E0      		ldi r20,0
 1946 07ae 52E4      		ldi r21,lo8(66)
 1947 07b0 0E94 0000 		call __addsf3
 1948               	.LVL140:
 1949               	.L87:
1251:main.c        ****             dtostrf(tempF , 10, 3, printBuffer);
 1950               		.loc 3 1251 0
 1951 07b4 00E0      		ldi r16,lo8(printBuffer)
 1952 07b6 10E0      		ldi r17,hi8(printBuffer)
 1953 07b8 23E0      		ldi r18,lo8(3)
 1954 07ba 4AE0      		ldi r20,lo8(10)
 1955 07bc 0E94 0000 		call dtostrf
 1956               	.LVL141:
1252:main.c        ****             //uart_puts(", Temperature: ");
1253:main.c        ****             //uart_putc(',');
1254:main.c        ****             uart_puts(printBuffer); //uart_puts( RETURN_NEWLINE );
 1957               		.loc 3 1254 0
 1958 07c0 C801      		movw r24,r16
 1959 07c2 0E94 0000 		call uart_puts
 1960               	.LVL142:
 1961               	.LBE221:
1255:main.c        ****     }
1256:main.c        ****     
1257:main.c        ****     uart_putc( ',');
 1962               		.loc 3 1257 0
 1963 07c6 8CE2      		ldi r24,lo8(44)
 1964               	/* epilogue start */
1258:main.c        **** }
 1965               		.loc 3 1258 0
 1966 07c8 1F91      		pop r17
 1967 07ca 0F91      		pop r16
1257:main.c        ****     uart_putc( ',');
 1968               		.loc 3 1257 0
 1969 07cc 0C94 0000 		jmp uart_putc
 1970               	.LVL143:
 1971               		.cfi_endproc
 1972               	.LFE42:
 1974               	.global	serialPrintAcFrequency
 1976               	serialPrintAcFrequency:
 1977               	.LFB43:
1259:main.c        **** 
1260:main.c        **** 
1261:main.c        **** 
1262:main.c        **** 
1263:main.c        **** 
1264:main.c        **** void serialPrintAcFrequency( void )
1265:main.c        **** {
 1978               		.loc 3 1265 0
 1979               		.cfi_startproc
 1980 07d0 0F93      		push r16
 1981               	.LCFI45:
 1982               		.cfi_def_cfa_offset 3
 1983               		.cfi_offset 16, -2
 1984 07d2 1F93      		push r17
 1985               	.LCFI46:
 1986               		.cfi_def_cfa_offset 4
 1987               		.cfi_offset 17, -3
 1988               	/* prologue: function */
 1989               	/* frame size = 0 */
 1990               	/* stack size = 2 */
 1991               	.L__stack_usage = 2
1266:main.c        **** 	dtostrf(acFrequency, 10, 3, printBuffer);
 1992               		.loc 3 1266 0
 1993 07d4 6091 0000 		lds r22,acFrequency
 1994 07d8 7091 0000 		lds r23,acFrequency+1
 1995 07dc 8091 0000 		lds r24,acFrequency+2
 1996 07e0 9091 0000 		lds r25,acFrequency+3
 1997 07e4 00E0      		ldi r16,lo8(printBuffer)
 1998 07e6 10E0      		ldi r17,hi8(printBuffer)
 1999 07e8 23E0      		ldi r18,lo8(3)
 2000 07ea 4AE0      		ldi r20,lo8(10)
 2001 07ec 0E94 0000 		call dtostrf
 2002               	.LVL144:
1267:main.c        **** 	uart_puts(printBuffer); //uart_puts( RETURN_NEWLINE );
 2003               		.loc 3 1267 0
 2004 07f0 C801      		movw r24,r16
 2005 07f2 0E94 0000 		call uart_puts
 2006               	.LVL145:
1268:main.c        **** 	uart_putc( ',');	
 2007               		.loc 3 1268 0
 2008 07f6 8CE2      		ldi r24,lo8(44)
 2009               	/* epilogue start */
1269:main.c        **** }
 2010               		.loc 3 1269 0
 2011 07f8 1F91      		pop r17
 2012 07fa 0F91      		pop r16
1268:main.c        **** 	uart_putc( ',');	
 2013               		.loc 3 1268 0
 2014 07fc 0C94 0000 		jmp uart_putc
 2015               	.LVL146:
 2016               		.cfi_endproc
 2017               	.LFE43:
 2019               	.global	readEepromToVars
 2021               	readEepromToVars:
 2022               	.LFB44:
1270:main.c        **** 
1271:main.c        **** 
1272:main.c        **** 
1273:main.c        **** 
1274:main.c        **** 
1275:main.c        **** 
1276:main.c        **** 
1277:main.c        **** void readEepromToVars( void )
1278:main.c        **** {
 2023               		.loc 3 1278 0
 2024               		.cfi_startproc
 2025               	/* prologue: function */
 2026               	/* frame size = 0 */
 2027               	/* stack size = 0 */
 2028               	.L__stack_usage = 0
1279:main.c        **** 	
1280:main.c        **** 	mscal = eeprom_read_dword( &ee_mscal );	
 2029               		.loc 3 1280 0
 2030 0800 80E0      		ldi r24,lo8(ee_mscal)
 2031 0802 90E0      		ldi r25,hi8(ee_mscal)
 2032 0804 0E94 0000 		call __eerd_dword_m328p
 2033               	.LVL147:
 2034 0808 6093 0000 		sts mscal,r22
 2035 080c 7093 0000 		sts mscal+1,r23
 2036 0810 8093 0000 		sts mscal+2,r24
 2037 0814 9093 0000 		sts mscal+3,r25
1281:main.c        **** 	nixiesleepstart = eeprom_read_dword( &ee_nixiesleepstart );
 2038               		.loc 3 1281 0
 2039 0818 80E0      		ldi r24,lo8(ee_nixiesleepstart)
 2040 081a 90E0      		ldi r25,hi8(ee_nixiesleepstart)
 2041 081c 0E94 0000 		call __eerd_dword_m328p
 2042               	.LVL148:
 2043 0820 6093 0000 		sts nixiesleepstart,r22
 2044 0824 7093 0000 		sts nixiesleepstart+1,r23
 2045 0828 8093 0000 		sts nixiesleepstart+2,r24
 2046 082c 9093 0000 		sts nixiesleepstart+3,r25
1282:main.c        **** 	nixiesleepend = eeprom_read_dword( &ee_nixiesleepend );
 2047               		.loc 3 1282 0
 2048 0830 80E0      		ldi r24,lo8(ee_nixiesleepend)
 2049 0832 90E0      		ldi r25,hi8(ee_nixiesleepend)
 2050 0834 0E94 0000 		call __eerd_dword_m328p
 2051               	.LVL149:
 2052 0838 6093 0000 		sts nixiesleepend,r22
 2053 083c 7093 0000 		sts nixiesleepend+1,r23
 2054 0840 8093 0000 		sts nixiesleepend+2,r24
 2055 0844 9093 0000 		sts nixiesleepend+3,r25
1283:main.c        **** 	
1284:main.c        **** 	miltime = eeprom_read_byte( &ee_miltime );
 2056               		.loc 3 1284 0
 2057 0848 80E0      		ldi r24,lo8(ee_miltime)
 2058 084a 90E0      		ldi r25,hi8(ee_miltime)
 2059 084c 0E94 0000 		call __eerd_byte_m328p
 2060               	.LVL150:
 2061 0850 8093 0000 		sts miltime,r24
1285:main.c        **** 	showtherm = eeprom_read_byte( &ee_showtherm );
 2062               		.loc 3 1285 0
 2063 0854 80E0      		ldi r24,lo8(ee_showtherm)
 2064 0856 90E0      		ldi r25,hi8(ee_showtherm)
 2065 0858 0E94 0000 		call __eerd_byte_m328p
 2066               	.LVL151:
 2067 085c 8093 0000 		sts showtherm,r24
1286:main.c        **** 	showfreq = eeprom_read_byte( &ee_showfreq );
 2068               		.loc 3 1286 0
 2069 0860 80E0      		ldi r24,lo8(ee_showfreq)
 2070 0862 90E0      		ldi r25,hi8(ee_showfreq)
 2071 0864 0E94 0000 		call __eerd_byte_m328p
 2072               	.LVL152:
 2073 0868 8093 0000 		sts showfreq,r24
1287:main.c        **** 	showdate = eeprom_read_byte( &ee_showdate );
 2074               		.loc 3 1287 0
 2075 086c 80E0      		ldi r24,lo8(ee_showdate)
 2076 086e 90E0      		ldi r25,hi8(ee_showdate)
 2077 0870 0E94 0000 		call __eerd_byte_m328p
 2078               	.LVL153:
 2079 0874 8093 0000 		sts showdate,r24
1288:main.c        **** 	celsius = eeprom_read_byte( &ee_celsius );
 2080               		.loc 3 1288 0
 2081 0878 80E0      		ldi r24,lo8(ee_celsius)
 2082 087a 90E0      		ldi r25,hi8(ee_celsius)
 2083 087c 0E94 0000 		call __eerd_byte_m328p
 2084               	.LVL154:
 2085 0880 8093 0000 		sts celsius,r24
1289:main.c        **** 	doecho = eeprom_read_byte( &ee_doecho );
 2086               		.loc 3 1289 0
 2087 0884 80E0      		ldi r24,lo8(ee_doecho)
 2088 0886 90E0      		ldi r25,hi8(ee_doecho)
 2089 0888 0E94 0000 		call __eerd_byte_m328p
 2090               	.LVL155:
 2091 088c 8093 0000 		sts doecho,r24
1290:main.c        **** 	acclock = eeprom_read_byte( &ee_acclock );
 2092               		.loc 3 1290 0
 2093 0890 80E0      		ldi r24,lo8(ee_acclock)
 2094 0892 90E0      		ldi r25,hi8(ee_acclock)
 2095 0894 0E94 0000 		call __eerd_byte_m328p
 2096               	.LVL156:
 2097 0898 8093 0000 		sts acclock,r24
1291:main.c        **** 	xtalisfast = eeprom_read_byte( &ee_xtalisfast );
 2098               		.loc 3 1291 0
 2099 089c 80E0      		ldi r24,lo8(ee_xtalisfast)
 2100 089e 90E0      		ldi r25,hi8(ee_xtalisfast)
 2101 08a0 0E94 0000 		call __eerd_byte_m328p
 2102               	.LVL157:
 2103 08a4 8093 0000 		sts xtalisfast,r24
1292:main.c        **** 	toggleled = eeprom_read_byte( &ee_toggleled );
 2104               		.loc 3 1292 0
 2105 08a8 80E0      		ldi r24,lo8(ee_toggleled)
 2106 08aa 90E0      		ldi r25,hi8(ee_toggleled)
 2107 08ac 0E94 0000 		call __eerd_byte_m328p
 2108               	.LVL158:
 2109 08b0 8093 0000 		sts toggleled,r24
 2110 08b4 0895      		ret
 2111               		.cfi_endproc
 2112               	.LFE44:
 2114               	.global	updateVarsToEeprom
 2116               	updateVarsToEeprom:
 2117               	.LFB45:
1293:main.c        **** 
1294:main.c        **** }
1295:main.c        **** 
1296:main.c        **** 
1297:main.c        **** 
1298:main.c        **** 
1299:main.c        **** 
1300:main.c        **** // Update will only write data to eeprom if the new value is different from the stored value.
1301:main.c        **** void updateVarsToEeprom( void )
1302:main.c        **** {
 2118               		.loc 3 1302 0
 2119               		.cfi_startproc
 2120               	/* prologue: function */
 2121               	/* frame size = 0 */
 2122               	/* stack size = 0 */
 2123               	.L__stack_usage = 0
1303:main.c        **** 
1304:main.c        **** 	eeprom_update_dword( &ee_mscal, mscal );
 2124               		.loc 3 1304 0
 2125 08b6 4091 0000 		lds r20,mscal
 2126 08ba 5091 0000 		lds r21,mscal+1
 2127 08be 6091 0000 		lds r22,mscal+2
 2128 08c2 7091 0000 		lds r23,mscal+3
 2129 08c6 80E0      		ldi r24,lo8(ee_mscal)
 2130 08c8 90E0      		ldi r25,hi8(ee_mscal)
 2131 08ca 0E94 0000 		call __eeupd_dword_m328p
 2132               	.LVL159:
1305:main.c        **** 	eeprom_update_dword( &ee_nixiesleepstart, nixiesleepstart );
 2133               		.loc 3 1305 0
 2134 08ce 4091 0000 		lds r20,nixiesleepstart
 2135 08d2 5091 0000 		lds r21,nixiesleepstart+1
 2136 08d6 6091 0000 		lds r22,nixiesleepstart+2
 2137 08da 7091 0000 		lds r23,nixiesleepstart+3
 2138 08de 80E0      		ldi r24,lo8(ee_nixiesleepstart)
 2139 08e0 90E0      		ldi r25,hi8(ee_nixiesleepstart)
 2140 08e2 0E94 0000 		call __eeupd_dword_m328p
 2141               	.LVL160:
1306:main.c        **** 	eeprom_update_dword( &ee_nixiesleepend, nixiesleepend );
 2142               		.loc 3 1306 0
 2143 08e6 4091 0000 		lds r20,nixiesleepend
 2144 08ea 5091 0000 		lds r21,nixiesleepend+1
 2145 08ee 6091 0000 		lds r22,nixiesleepend+2
 2146 08f2 7091 0000 		lds r23,nixiesleepend+3
 2147 08f6 80E0      		ldi r24,lo8(ee_nixiesleepend)
 2148 08f8 90E0      		ldi r25,hi8(ee_nixiesleepend)
 2149 08fa 0E94 0000 		call __eeupd_dword_m328p
 2150               	.LVL161:
1307:main.c        **** 	
1308:main.c        **** 	eeprom_update_byte( &ee_miltime, miltime );
 2151               		.loc 3 1308 0
 2152 08fe 6091 0000 		lds r22,miltime
 2153 0902 80E0      		ldi r24,lo8(ee_miltime)
 2154 0904 90E0      		ldi r25,hi8(ee_miltime)
 2155 0906 0E94 0000 		call __eeupd_byte_m328p
 2156               	.LVL162:
1309:main.c        **** 	eeprom_update_byte( &ee_showtherm, showtherm );
 2157               		.loc 3 1309 0
 2158 090a 6091 0000 		lds r22,showtherm
 2159 090e 80E0      		ldi r24,lo8(ee_showtherm)
 2160 0910 90E0      		ldi r25,hi8(ee_showtherm)
 2161 0912 0E94 0000 		call __eeupd_byte_m328p
 2162               	.LVL163:
1310:main.c        **** 	eeprom_update_byte( &ee_showfreq, showfreq );
 2163               		.loc 3 1310 0
 2164 0916 6091 0000 		lds r22,showfreq
 2165 091a 80E0      		ldi r24,lo8(ee_showfreq)
 2166 091c 90E0      		ldi r25,hi8(ee_showfreq)
 2167 091e 0E94 0000 		call __eeupd_byte_m328p
 2168               	.LVL164:
1311:main.c        **** 	eeprom_update_byte( &ee_showdate, showdate );
 2169               		.loc 3 1311 0
 2170 0922 6091 0000 		lds r22,showdate
 2171 0926 80E0      		ldi r24,lo8(ee_showdate)
 2172 0928 90E0      		ldi r25,hi8(ee_showdate)
 2173 092a 0E94 0000 		call __eeupd_byte_m328p
 2174               	.LVL165:
1312:main.c        **** 	eeprom_update_byte( &ee_celsius, celsius );
 2175               		.loc 3 1312 0
 2176 092e 6091 0000 		lds r22,celsius
 2177 0932 80E0      		ldi r24,lo8(ee_celsius)
 2178 0934 90E0      		ldi r25,hi8(ee_celsius)
 2179 0936 0E94 0000 		call __eeupd_byte_m328p
 2180               	.LVL166:
1313:main.c        **** 	eeprom_update_byte( &ee_doecho, doecho );
 2181               		.loc 3 1313 0
 2182 093a 6091 0000 		lds r22,doecho
 2183 093e 80E0      		ldi r24,lo8(ee_doecho)
 2184 0940 90E0      		ldi r25,hi8(ee_doecho)
 2185 0942 0E94 0000 		call __eeupd_byte_m328p
 2186               	.LVL167:
1314:main.c        **** 	eeprom_update_byte( &ee_acclock, acclock );
 2187               		.loc 3 1314 0
 2188 0946 6091 0000 		lds r22,acclock
 2189 094a 80E0      		ldi r24,lo8(ee_acclock)
 2190 094c 90E0      		ldi r25,hi8(ee_acclock)
 2191 094e 0E94 0000 		call __eeupd_byte_m328p
 2192               	.LVL168:
1315:main.c        **** 	eeprom_update_byte( &ee_xtalisfast, xtalisfast );
 2193               		.loc 3 1315 0
 2194 0952 6091 0000 		lds r22,xtalisfast
 2195 0956 80E0      		ldi r24,lo8(ee_xtalisfast)
 2196 0958 90E0      		ldi r25,hi8(ee_xtalisfast)
 2197 095a 0E94 0000 		call __eeupd_byte_m328p
 2198               	.LVL169:
1316:main.c        **** 	eeprom_update_byte( &ee_toggleled, toggleled );
 2199               		.loc 3 1316 0
 2200 095e 6091 0000 		lds r22,toggleled
 2201 0962 80E0      		ldi r24,lo8(ee_toggleled)
 2202 0964 90E0      		ldi r25,hi8(ee_toggleled)
 2203 0966 0C94 0000 		jmp __eeupd_byte_m328p
 2204               	.LVL170:
 2205               		.cfi_endproc
 2206               	.LFE45:
 2208               		.section	.rodata.str1.1
 2209               	.LC11:
 2210 012d 686F 7572 		.string	"hours"
 2210      7300 
 2211               	.LC12:
 2212 0133 3F00      		.string	"?"
 2213               	.LC13:
 2214 0135 486F 7572 		.string	"Hours"
 2214      7300 
 2215               	.LC14:
 2216 013b 3D00      		.string	"="
 2217               	.LC15:
 2218 013d 6D69 6E75 		.string	"minutes"
 2218      7465 7300 
 2219               	.LC16:
 2220 0145 4D69 6E75 		.string	"Minutes"
 2220      7465 7300 
 2221               	.LC17:
 2222 014d 7365 636F 		.string	"seconds"
 2222      6E64 7300 
 2223               	.LC18:
 2224 0155 5365 636F 		.string	"Seconds"
 2224      6E64 7300 
 2225               	.LC19:
 2226 015d 6D73 6361 		.string	"mscal"
 2226      6C00 
 2227               	.LC20:
 2228 0163 6D53 2043 		.string	"mS Calibration"
 2228      616C 6962 
 2228      7261 7469 
 2228      6F6E 00
 2229               	.LC21:
 2230 0172 6D69 6C74 		.string	"miltime"
 2230      696D 6500 
 2231               	.LC22:
 2232 017a 4D49 4C20 		.string	"MIL Time"
 2232      5469 6D65 
 2232      00
 2233               	.LC23:
 2234 0183 7965 6172 		.string	"year"
 2234      00
 2235               	.LC24:
 2236 0188 5965 6172 		.string	"Year"
 2236      00
 2237               	.LC25:
 2238 018d 6D6F 6E74 		.string	"month"
 2238      6800 
 2239               	.LC26:
 2240 0193 4D6F 6E74 		.string	"Month"
 2240      6800 
 2241               	.LC27:
 2242 0199 6461 7900 		.string	"day"
 2243               	.LC28:
 2244 019d 4461 7900 		.string	"Day"
 2245               	.LC29:
 2246 01a1 6365 6C73 		.string	"celsius"
 2246      6975 7300 
 2247               	.LC30:
 2248 01a9 4365 6C73 		.string	"Celsius"
 2248      6975 7300 
 2249               	.LC31:
 2250 01b1 646F 6563 		.string	"doecho"
 2250      686F 00
 2251               	.LC32:
 2252 01b8 446F 2045 		.string	"Do Echo"
 2252      6368 6F00 
 2253               	.LC33:
 2254 01c0 6163 636C 		.string	"acclock"
 2254      6F63 6B00 
 2255               	.LC34:
 2256 01c8 4143 2043 		.string	"AC Clock"
 2256      6C6F 636B 
 2256      00
 2257               	.LC35:
 2258 01d1 7874 616C 		.string	"xtalisfast"
 2258      6973 6661 
 2258      7374 00
 2259               	.LC36:
 2260 01dc 7368 6F77 		.string	"showtherm"
 2260      7468 6572 
 2260      6D00 
 2261               	.LC37:
 2262 01e6 5368 6F77 		.string	"Show Therm"
 2262      2054 6865 
 2262      726D 00
 2263               	.LC38:
 2264 01f1 7368 6F77 		.string	"showfreq"
 2264      6672 6571 
 2264      00
 2265               	.LC39:
 2266 01fa 5368 6F77 		.string	"Show Freq"
 2266      2046 7265 
 2266      7100 
 2267               	.LC40:
 2268 0204 7368 6F77 		.string	"showdate"
 2268      6461 7465 
 2268      00
 2269               	.LC41:
 2270 020d 5368 6F77 		.string	"Show Date"
 2270      2044 6174 
 2270      6500 
 2271               	.LC42:
 2272 0217 746F 6767 		.string	"toggleled"
 2272      6C65 6C65 
 2272      6400 
 2273               	.LC43:
 2274 0221 546F 6767 		.string	"Toggle LED"
 2274      6C65 204C 
 2274      4544 00
 2275               	.LC44:
 2276 022c 6E69 7869 		.string	"nixiesleepstart"
 2276      6573 6C65 
 2276      6570 7374 
 2276      6172 7400 
 2277               	.LC45:
 2278 023c 4E69 7869 		.string	"Nixie Sleep Start Time"
 2278      6520 536C 
 2278      6565 7020 
 2278      5374 6172 
 2278      7420 5469 
 2279               	.LC46:
 2280 0253 6E69 7869 		.string	"nixiesleepend"
 2280      6573 6C65 
 2280      6570 656E 
 2280      6400 
 2281               	.LC47:
 2282 0261 4E69 7869 		.string	"Nixie Sleep End Time"
 2282      6520 536C 
 2282      6565 7020 
 2282      456E 6420 
 2282      5469 6D65 
 2283               	.LC48:
 2284 0276 6765 7461 		.string	"getall"
 2284      6C6C 00
 2285               	.LC49:
 2286 027d 2C00      		.string	","
 2287               	.LC50:
 2288 027f 7261 6D74 		.string	"ramtoeeprom"
 2288      6F65 6570 
 2288      726F 6D00 
 2289               	.LC51:
 2290 028b 4545 5052 		.string	"EEPROM Storage Complete"
 2290      4F4D 2053 
 2290      746F 7261 
 2290      6765 2043 
 2290      6F6D 706C 
 2291               	.LC52:
 2292 02a3 706F 6B65 		.string	"poke"
 2292      00
 2293               	.LC53:
 2294 02a8 4865 6C6C 		.string	"Hello!"
 2294      6F21 00
 2295               	.LC54:
 2296 02af 4927 6D20 		.string	"I'm Serial Number: "
 2296      5365 7269 
 2296      616C 204E 
 2296      756D 6265 
 2296      723A 2000 
 2297               	.LC55:
 2298 02c3 7077 726F 		.string	"pwrok"
 2298      6B00 
 2299               	.LC56:
 2300 02c9 6876 6665 		.string	"hvfeedback"
 2300      6564 6261 
 2300      636B 00
 2301               	.LC57:
 2302 02d4 6261 7474 		.string	"battvoltage"
 2302      766F 6C74 
 2302      6167 6500 
 2303               	.LC58:
 2304 02e0 7265 6374 		.string	"rectifiedac"
 2304      6966 6965 
 2304      6461 6300 
 2305               		.text
 2306               	.global	process_command
 2308               	process_command:
 2309               	.LFB27:
 516:main.c        **** {
 2310               		.loc 3 516 0
 2311               		.cfi_startproc
 2312 096a CF92      		push r12
 2313               	.LCFI47:
 2314               		.cfi_def_cfa_offset 3
 2315               		.cfi_offset 12, -2
 2316 096c DF92      		push r13
 2317               	.LCFI48:
 2318               		.cfi_def_cfa_offset 4
 2319               		.cfi_offset 13, -3
 2320 096e EF92      		push r14
 2321               	.LCFI49:
 2322               		.cfi_def_cfa_offset 5
 2323               		.cfi_offset 14, -4
 2324 0970 FF92      		push r15
 2325               	.LCFI50:
 2326               		.cfi_def_cfa_offset 6
 2327               		.cfi_offset 15, -5
 2328 0972 0F93      		push r16
 2329               	.LCFI51:
 2330               		.cfi_def_cfa_offset 7
 2331               		.cfi_offset 16, -6
 2332 0974 1F93      		push r17
 2333               	.LCFI52:
 2334               		.cfi_def_cfa_offset 8
 2335               		.cfi_offset 17, -7
 2336               	/* prologue: function */
 2337               	/* frame size = 0 */
 2338               	/* stack size = 6 */
 2339               	.L__stack_usage = 6
 517:main.c        ****     if(strcasestr(myUartString,"hours") != NULL){
 2340               		.loc 3 517 0
 2341 0976 60E0      		ldi r22,lo8(.LC11)
 2342 0978 70E0      		ldi r23,hi8(.LC11)
 2343 097a 80E0      		ldi r24,lo8(myUartString)
 2344 097c 90E0      		ldi r25,hi8(myUartString)
 2345 097e 0E94 0000 		call strcasestr
 2346               	.LVL171:
 2347 0982 892B      		or r24,r25
 2348 0984 01F0      		breq .L92
 518:main.c        ****         if(strcasestr(myUartString,"?") != NULL){
 2349               		.loc 3 518 0
 2350 0986 60E0      		ldi r22,lo8(.LC12)
 2351 0988 70E0      		ldi r23,hi8(.LC12)
 2352 098a 80E0      		ldi r24,lo8(myUartString)
 2353 098c 90E0      		ldi r25,hi8(myUartString)
 2354 098e 0E94 0000 		call strcasestr
 2355               	.LVL172:
 2356 0992 892B      		or r24,r25
 2357 0994 01F0      		breq .L93
 519:main.c        ****             print_value("Hours", hours);
 2358               		.loc 3 519 0
 2359 0996 4091 0000 		lds r20,hours
 2360 099a 50E0      		ldi r21,0
 2361 099c 60E0      		ldi r22,0
 2362 099e 70E0      		ldi r23,0
 2363 09a0 80E0      		ldi r24,lo8(.LC13)
 2364 09a2 90E0      		ldi r25,hi8(.LC13)
 2365 09a4 00C0      		rjmp .L209
 2366               	.L93:
 521:main.c        ****         	if(strcasestr(myUartString,"=") != NULL){
 2367               		.loc 3 521 0
 2368 09a6 60E0      		ldi r22,lo8(.LC14)
 2369 09a8 70E0      		ldi r23,hi8(.LC14)
 2370 09aa 80E0      		ldi r24,lo8(myUartString)
 2371 09ac 90E0      		ldi r25,hi8(myUartString)
 2372 09ae 0E94 0000 		call strcasestr
 2373               	.LVL173:
 2374 09b2 892B      		or r24,r25
 2375 09b4 01F4      		brne .+2
 2376 09b6 00C0      		rjmp .L94
 522:main.c        ****         		if( inRange( splitString(myUartString), 23, 0 ) )
 2377               		.loc 3 522 0
 2378 09b8 80E0      		ldi r24,lo8(myUartString)
 2379 09ba 90E0      		ldi r25,hi8(myUartString)
 2380 09bc 0E94 0000 		call splitString
 2381               	.LVL174:
 2382               	.LBB222:
 2383               	.LBB223:
 503:main.c        **** 	if( inputValue >= lowerBound && inputValue <= upperBound )
 2384               		.loc 3 503 0
 2385 09c0 6831      		cpi r22,24
 2386 09c2 7105      		cpc r23,__zero_reg__
 2387 09c4 8105      		cpc r24,__zero_reg__
 2388 09c6 9105      		cpc r25,__zero_reg__
 2389 09c8 00F4      		brsh .+2
 2390 09ca 00C0      		rjmp .L96
 2391 09cc 00C0      		rjmp .L94
 2392               	.LVL175:
 2393               	.L92:
 2394               	.LBE223:
 2395               	.LBE222:
 528:main.c        ****     else if(strcasestr(myUartString,"minutes") != NULL){
 2396               		.loc 3 528 0
 2397 09ce 60E0      		ldi r22,lo8(.LC15)
 2398 09d0 70E0      		ldi r23,hi8(.LC15)
 2399 09d2 80E0      		ldi r24,lo8(myUartString)
 2400 09d4 90E0      		ldi r25,hi8(myUartString)
 2401 09d6 0E94 0000 		call strcasestr
 2402               	.LVL176:
 2403 09da 892B      		or r24,r25
 2404 09dc 01F0      		breq .L98
 529:main.c        ****         if(strcasestr(myUartString,"?") != NULL){
 2405               		.loc 3 529 0
 2406 09de 60E0      		ldi r22,lo8(.LC12)
 2407 09e0 70E0      		ldi r23,hi8(.LC12)
 2408 09e2 80E0      		ldi r24,lo8(myUartString)
 2409 09e4 90E0      		ldi r25,hi8(myUartString)
 2410 09e6 0E94 0000 		call strcasestr
 2411               	.LVL177:
 2412 09ea 892B      		or r24,r25
 2413 09ec 01F0      		breq .L99
 530:main.c        ****             print_value("Minutes", minutes);
 2414               		.loc 3 530 0
 2415 09ee 4091 0000 		lds r20,minutes
 2416 09f2 50E0      		ldi r21,0
 2417 09f4 60E0      		ldi r22,0
 2418 09f6 70E0      		ldi r23,0
 2419 09f8 80E0      		ldi r24,lo8(.LC16)
 2420 09fa 90E0      		ldi r25,hi8(.LC16)
 2421 09fc 00C0      		rjmp .L209
 2422               	.L99:
 532:main.c        ****         	if(strcasestr(myUartString,"=") != NULL){
 2423               		.loc 3 532 0
 2424 09fe 60E0      		ldi r22,lo8(.LC14)
 2425 0a00 70E0      		ldi r23,hi8(.LC14)
 2426 0a02 80E0      		ldi r24,lo8(myUartString)
 2427 0a04 90E0      		ldi r25,hi8(myUartString)
 2428 0a06 0E94 0000 		call strcasestr
 2429               	.LVL178:
 2430 0a0a 892B      		or r24,r25
 2431 0a0c 01F4      		brne .+2
 2432 0a0e 00C0      		rjmp .L94
 533:main.c        ****         		if( inRange( splitString(myUartString), 59, 0 ) )
 2433               		.loc 3 533 0
 2434 0a10 80E0      		ldi r24,lo8(myUartString)
 2435 0a12 90E0      		ldi r25,hi8(myUartString)
 2436 0a14 0E94 0000 		call splitString
 2437               	.LVL179:
 2438               	.LBB224:
 2439               	.LBB225:
 503:main.c        **** 	if( inputValue >= lowerBound && inputValue <= upperBound )
 2440               		.loc 3 503 0
 2441 0a18 6C33      		cpi r22,60
 2442 0a1a 7105      		cpc r23,__zero_reg__
 2443 0a1c 8105      		cpc r24,__zero_reg__
 2444 0a1e 9105      		cpc r25,__zero_reg__
 2445 0a20 00F4      		brsh .+2
 2446 0a22 00C0      		rjmp .L100
 2447 0a24 00C0      		rjmp .L94
 2448               	.LVL180:
 2449               	.L98:
 2450               	.LBE225:
 2451               	.LBE224:
 539:main.c        ****     else if(strcasestr(myUartString,"seconds") != NULL){
 2452               		.loc 3 539 0
 2453 0a26 60E0      		ldi r22,lo8(.LC17)
 2454 0a28 70E0      		ldi r23,hi8(.LC17)
 2455 0a2a 80E0      		ldi r24,lo8(myUartString)
 2456 0a2c 90E0      		ldi r25,hi8(myUartString)
 2457 0a2e 0E94 0000 		call strcasestr
 2458               	.LVL181:
 2459 0a32 892B      		or r24,r25
 2460 0a34 01F0      		breq .L101
 540:main.c        ****         if(strcasestr(myUartString,"?") != NULL){
 2461               		.loc 3 540 0
 2462 0a36 60E0      		ldi r22,lo8(.LC12)
 2463 0a38 70E0      		ldi r23,hi8(.LC12)
 2464 0a3a 80E0      		ldi r24,lo8(myUartString)
 2465 0a3c 90E0      		ldi r25,hi8(myUartString)
 2466 0a3e 0E94 0000 		call strcasestr
 2467               	.LVL182:
 2468 0a42 892B      		or r24,r25
 2469 0a44 01F0      		breq .L102
 541:main.c        ****             print_value("Seconds", seconds);
 2470               		.loc 3 541 0
 2471 0a46 4091 0000 		lds r20,seconds
 2472 0a4a 50E0      		ldi r21,0
 2473 0a4c 60E0      		ldi r22,0
 2474 0a4e 70E0      		ldi r23,0
 2475 0a50 80E0      		ldi r24,lo8(.LC18)
 2476 0a52 90E0      		ldi r25,hi8(.LC18)
 2477 0a54 00C0      		rjmp .L209
 2478               	.L102:
 543:main.c        ****         	if(strcasestr(myUartString,"=") != NULL){
 2479               		.loc 3 543 0
 2480 0a56 60E0      		ldi r22,lo8(.LC14)
 2481 0a58 70E0      		ldi r23,hi8(.LC14)
 2482 0a5a 80E0      		ldi r24,lo8(myUartString)
 2483 0a5c 90E0      		ldi r25,hi8(myUartString)
 2484 0a5e 0E94 0000 		call strcasestr
 2485               	.LVL183:
 2486 0a62 892B      		or r24,r25
 2487 0a64 01F4      		brne .+2
 2488 0a66 00C0      		rjmp .L94
 544:main.c        ****         		if( inRange( splitString(myUartString), 59, 0 ) )
 2489               		.loc 3 544 0
 2490 0a68 80E0      		ldi r24,lo8(myUartString)
 2491 0a6a 90E0      		ldi r25,hi8(myUartString)
 2492 0a6c 0E94 0000 		call splitString
 2493               	.LVL184:
 2494               	.LBB226:
 2495               	.LBB227:
 503:main.c        **** 	if( inputValue >= lowerBound && inputValue <= upperBound )
 2496               		.loc 3 503 0
 2497 0a70 6C33      		cpi r22,60
 2498 0a72 7105      		cpc r23,__zero_reg__
 2499 0a74 8105      		cpc r24,__zero_reg__
 2500 0a76 9105      		cpc r25,__zero_reg__
 2501 0a78 00F4      		brsh .+2
 2502 0a7a 00C0      		rjmp .L103
 2503 0a7c 00C0      		rjmp .L94
 2504               	.LVL185:
 2505               	.L101:
 2506               	.LBE227:
 2507               	.LBE226:
 550:main.c        ****     else if(strcasestr(myUartString,"mscal") != NULL){
 2508               		.loc 3 550 0
 2509 0a7e 60E0      		ldi r22,lo8(.LC19)
 2510 0a80 70E0      		ldi r23,hi8(.LC19)
 2511 0a82 80E0      		ldi r24,lo8(myUartString)
 2512 0a84 90E0      		ldi r25,hi8(myUartString)
 2513 0a86 0E94 0000 		call strcasestr
 2514               	.LVL186:
 2515 0a8a 892B      		or r24,r25
 2516 0a8c 01F0      		breq .L104
 551:main.c        ****         if(strcasestr(myUartString,"?") != NULL){
 2517               		.loc 3 551 0
 2518 0a8e 60E0      		ldi r22,lo8(.LC12)
 2519 0a90 70E0      		ldi r23,hi8(.LC12)
 2520 0a92 80E0      		ldi r24,lo8(myUartString)
 2521 0a94 90E0      		ldi r25,hi8(myUartString)
 2522 0a96 0E94 0000 		call strcasestr
 2523               	.LVL187:
 2524 0a9a 892B      		or r24,r25
 2525 0a9c 01F0      		breq .L105
 552:main.c        ****             print_value("mS Calibration", mscal);
 2526               		.loc 3 552 0
 2527 0a9e 4091 0000 		lds r20,mscal
 2528 0aa2 5091 0000 		lds r21,mscal+1
 2529 0aa6 6091 0000 		lds r22,mscal+2
 2530 0aaa 7091 0000 		lds r23,mscal+3
 2531 0aae 80E0      		ldi r24,lo8(.LC20)
 2532 0ab0 90E0      		ldi r25,hi8(.LC20)
 2533 0ab2 00C0      		rjmp .L209
 2534               	.L105:
 554:main.c        ****         	if(strcasestr(myUartString,"=") != NULL){
 2535               		.loc 3 554 0
 2536 0ab4 60E0      		ldi r22,lo8(.LC14)
 2537 0ab6 70E0      		ldi r23,hi8(.LC14)
 2538 0ab8 80E0      		ldi r24,lo8(myUartString)
 2539 0aba 90E0      		ldi r25,hi8(myUartString)
 2540 0abc 0E94 0000 		call strcasestr
 2541               	.LVL188:
 2542 0ac0 892B      		or r24,r25
 2543 0ac2 01F4      		brne .+2
 2544 0ac4 00C0      		rjmp .L94
 555:main.c        ****         		if( inRange( splitString(myUartString), 4294967295, 0 ) )
 2545               		.loc 3 555 0
 2546 0ac6 80E0      		ldi r24,lo8(myUartString)
 2547 0ac8 90E0      		ldi r25,hi8(myUartString)
 2548 0aca 0E94 0000 		call splitString
 2549               	.LVL189:
 556:main.c        ****             		mscal = splitString(myUartString);
 2550               		.loc 3 556 0
 2551 0ace 80E0      		ldi r24,lo8(myUartString)
 2552 0ad0 90E0      		ldi r25,hi8(myUartString)
 2553 0ad2 0E94 0000 		call splitString
 2554               	.LVL190:
 2555 0ad6 6093 0000 		sts mscal,r22
 2556 0ada 7093 0000 		sts mscal+1,r23
 2557 0ade 8093 0000 		sts mscal+2,r24
 2558 0ae2 9093 0000 		sts mscal+3,r25
 2559 0ae6 00C0      		rjmp .L94
 2560               	.LVL191:
 2561               	.L104:
 561:main.c        ****     else if(strcasestr(myUartString,"miltime") != NULL){
 2562               		.loc 3 561 0
 2563 0ae8 60E0      		ldi r22,lo8(.LC21)
 2564 0aea 70E0      		ldi r23,hi8(.LC21)
 2565 0aec 80E0      		ldi r24,lo8(myUartString)
 2566 0aee 90E0      		ldi r25,hi8(myUartString)
 2567 0af0 0E94 0000 		call strcasestr
 2568               	.LVL192:
 2569 0af4 892B      		or r24,r25
 2570 0af6 01F0      		breq .L106
 562:main.c        ****         if(strcasestr(myUartString,"?") != NULL){
 2571               		.loc 3 562 0
 2572 0af8 60E0      		ldi r22,lo8(.LC12)
 2573 0afa 70E0      		ldi r23,hi8(.LC12)
 2574 0afc 80E0      		ldi r24,lo8(myUartString)
 2575 0afe 90E0      		ldi r25,hi8(myUartString)
 2576 0b00 0E94 0000 		call strcasestr
 2577               	.LVL193:
 2578 0b04 892B      		or r24,r25
 2579 0b06 01F0      		breq .L107
 563:main.c        ****             print_value("MIL Time", miltime);
 2580               		.loc 3 563 0
 2581 0b08 4091 0000 		lds r20,miltime
 2582 0b0c 50E0      		ldi r21,0
 2583 0b0e 60E0      		ldi r22,0
 2584 0b10 70E0      		ldi r23,0
 2585 0b12 80E0      		ldi r24,lo8(.LC22)
 2586 0b14 90E0      		ldi r25,hi8(.LC22)
 2587 0b16 00C0      		rjmp .L209
 2588               	.L107:
 565:main.c        ****         	if(strcasestr(myUartString,"=") != NULL){
 2589               		.loc 3 565 0
 2590 0b18 60E0      		ldi r22,lo8(.LC14)
 2591 0b1a 70E0      		ldi r23,hi8(.LC14)
 2592 0b1c 80E0      		ldi r24,lo8(myUartString)
 2593 0b1e 90E0      		ldi r25,hi8(myUartString)
 2594 0b20 0E94 0000 		call strcasestr
 2595               	.LVL194:
 2596 0b24 892B      		or r24,r25
 2597 0b26 01F4      		brne .+2
 2598 0b28 00C0      		rjmp .L94
 566:main.c        ****         		if( inRange( splitString(myUartString), 1, 0 ) )
 2599               		.loc 3 566 0
 2600 0b2a 80E0      		ldi r24,lo8(myUartString)
 2601 0b2c 90E0      		ldi r25,hi8(myUartString)
 2602 0b2e 0E94 0000 		call splitString
 2603               	.LVL195:
 2604               	.LBB228:
 2605               	.LBB229:
 503:main.c        **** 	if( inputValue >= lowerBound && inputValue <= upperBound )
 2606               		.loc 3 503 0
 2607 0b32 6230      		cpi r22,2
 2608 0b34 7105      		cpc r23,__zero_reg__
 2609 0b36 8105      		cpc r24,__zero_reg__
 2610 0b38 9105      		cpc r25,__zero_reg__
 2611 0b3a 00F0      		brlo .+2
 2612 0b3c 00C0      		rjmp .L94
 2613 0b3e 00C0      		rjmp .L108
 2614               	.LVL196:
 2615               	.L106:
 2616               	.LBE229:
 2617               	.LBE228:
 572:main.c        ****     else if(strcasestr(myUartString,"year") != NULL){
 2618               		.loc 3 572 0
 2619 0b40 60E0      		ldi r22,lo8(.LC23)
 2620 0b42 70E0      		ldi r23,hi8(.LC23)
 2621 0b44 80E0      		ldi r24,lo8(myUartString)
 2622 0b46 90E0      		ldi r25,hi8(myUartString)
 2623 0b48 0E94 0000 		call strcasestr
 2624               	.LVL197:
 2625 0b4c 892B      		or r24,r25
 2626 0b4e 01F0      		breq .L109
 573:main.c        ****         if(strcasestr(myUartString,"?") != NULL){
 2627               		.loc 3 573 0
 2628 0b50 60E0      		ldi r22,lo8(.LC12)
 2629 0b52 70E0      		ldi r23,hi8(.LC12)
 2630 0b54 80E0      		ldi r24,lo8(myUartString)
 2631 0b56 90E0      		ldi r25,hi8(myUartString)
 2632 0b58 0E94 0000 		call strcasestr
 2633               	.LVL198:
 2634 0b5c 892B      		or r24,r25
 2635 0b5e 01F0      		breq .L110
 574:main.c        ****             print_value("Year", year);
 2636               		.loc 3 574 0
 2637 0b60 4091 0000 		lds r20,year
 2638 0b64 5091 0000 		lds r21,year+1
 2639 0b68 60E0      		ldi r22,0
 2640 0b6a 70E0      		ldi r23,0
 2641 0b6c 80E0      		ldi r24,lo8(.LC24)
 2642 0b6e 90E0      		ldi r25,hi8(.LC24)
 2643 0b70 00C0      		rjmp .L209
 2644               	.L110:
 576:main.c        ****         	if(strcasestr(myUartString,"=") != NULL){
 2645               		.loc 3 576 0
 2646 0b72 60E0      		ldi r22,lo8(.LC14)
 2647 0b74 70E0      		ldi r23,hi8(.LC14)
 2648 0b76 80E0      		ldi r24,lo8(myUartString)
 2649 0b78 90E0      		ldi r25,hi8(myUartString)
 2650 0b7a 0E94 0000 		call strcasestr
 2651               	.LVL199:
 2652 0b7e 892B      		or r24,r25
 2653 0b80 01F4      		brne .+2
 2654 0b82 00C0      		rjmp .L94
 577:main.c        ****         		if( inRange( splitString(myUartString), 2525, 0 ) )
 2655               		.loc 3 577 0
 2656 0b84 80E0      		ldi r24,lo8(myUartString)
 2657 0b86 90E0      		ldi r25,hi8(myUartString)
 2658 0b88 0E94 0000 		call splitString
 2659               	.LVL200:
 2660               	.LBB230:
 2661               	.LBB231:
 503:main.c        **** 	if( inputValue >= lowerBound && inputValue <= upperBound )
 2662               		.loc 3 503 0
 2663 0b8c 6E3D      		cpi r22,-34
 2664 0b8e 7940      		sbci r23,9
 2665 0b90 8105      		cpc r24,__zero_reg__
 2666 0b92 9105      		cpc r25,__zero_reg__
 2667 0b94 00F4      		brsh .+2
 2668 0b96 00C0      		rjmp .L111
 2669 0b98 00C0      		rjmp .L94
 2670               	.LVL201:
 2671               	.L109:
 2672               	.LBE231:
 2673               	.LBE230:
 583:main.c        ****     else if(strcasestr(myUartString,"month") != NULL){
 2674               		.loc 3 583 0
 2675 0b9a 60E0      		ldi r22,lo8(.LC25)
 2676 0b9c 70E0      		ldi r23,hi8(.LC25)
 2677 0b9e 80E0      		ldi r24,lo8(myUartString)
 2678 0ba0 90E0      		ldi r25,hi8(myUartString)
 2679 0ba2 0E94 0000 		call strcasestr
 2680               	.LVL202:
 2681 0ba6 892B      		or r24,r25
 2682 0ba8 01F0      		breq .L112
 584:main.c        ****         if(strcasestr(myUartString,"?") != NULL){
 2683               		.loc 3 584 0
 2684 0baa 60E0      		ldi r22,lo8(.LC12)
 2685 0bac 70E0      		ldi r23,hi8(.LC12)
 2686 0bae 80E0      		ldi r24,lo8(myUartString)
 2687 0bb0 90E0      		ldi r25,hi8(myUartString)
 2688 0bb2 0E94 0000 		call strcasestr
 2689               	.LVL203:
 2690 0bb6 892B      		or r24,r25
 2691 0bb8 01F0      		breq .L113
 585:main.c        ****             print_value("Month", month);
 2692               		.loc 3 585 0
 2693 0bba 4091 0000 		lds r20,month
 2694 0bbe 50E0      		ldi r21,0
 2695 0bc0 60E0      		ldi r22,0
 2696 0bc2 70E0      		ldi r23,0
 2697 0bc4 80E0      		ldi r24,lo8(.LC26)
 2698 0bc6 90E0      		ldi r25,hi8(.LC26)
 2699 0bc8 00C0      		rjmp .L209
 2700               	.L113:
 587:main.c        ****         	if(strcasestr(myUartString,"=") != NULL){
 2701               		.loc 3 587 0
 2702 0bca 60E0      		ldi r22,lo8(.LC14)
 2703 0bcc 70E0      		ldi r23,hi8(.LC14)
 2704 0bce 80E0      		ldi r24,lo8(myUartString)
 2705 0bd0 90E0      		ldi r25,hi8(myUartString)
 2706 0bd2 0E94 0000 		call strcasestr
 2707               	.LVL204:
 2708 0bd6 892B      		or r24,r25
 2709 0bd8 01F4      		brne .+2
 2710 0bda 00C0      		rjmp .L94
 588:main.c        ****         		if( inRange( splitString(myUartString), 12, 0 ) )
 2711               		.loc 3 588 0
 2712 0bdc 80E0      		ldi r24,lo8(myUartString)
 2713 0bde 90E0      		ldi r25,hi8(myUartString)
 2714 0be0 0E94 0000 		call splitString
 2715               	.LVL205:
 2716               	.LBB232:
 2717               	.LBB233:
 503:main.c        **** 	if( inputValue >= lowerBound && inputValue <= upperBound )
 2718               		.loc 3 503 0
 2719 0be4 6D30      		cpi r22,13
 2720 0be6 7105      		cpc r23,__zero_reg__
 2721 0be8 8105      		cpc r24,__zero_reg__
 2722 0bea 9105      		cpc r25,__zero_reg__
 2723 0bec 00F4      		brsh .+2
 2724 0bee 00C0      		rjmp .L114
 2725 0bf0 00C0      		rjmp .L94
 2726               	.LVL206:
 2727               	.L112:
 2728               	.LBE233:
 2729               	.LBE232:
 594:main.c        ****     else if(strcasestr(myUartString,"day") != NULL){
 2730               		.loc 3 594 0
 2731 0bf2 60E0      		ldi r22,lo8(.LC27)
 2732 0bf4 70E0      		ldi r23,hi8(.LC27)
 2733 0bf6 80E0      		ldi r24,lo8(myUartString)
 2734 0bf8 90E0      		ldi r25,hi8(myUartString)
 2735 0bfa 0E94 0000 		call strcasestr
 2736               	.LVL207:
 2737 0bfe 892B      		or r24,r25
 2738 0c00 01F0      		breq .L115
 595:main.c        ****         if(strcasestr(myUartString,"?") != NULL){
 2739               		.loc 3 595 0
 2740 0c02 60E0      		ldi r22,lo8(.LC12)
 2741 0c04 70E0      		ldi r23,hi8(.LC12)
 2742 0c06 80E0      		ldi r24,lo8(myUartString)
 2743 0c08 90E0      		ldi r25,hi8(myUartString)
 2744 0c0a 0E94 0000 		call strcasestr
 2745               	.LVL208:
 2746 0c0e 892B      		or r24,r25
 2747 0c10 01F0      		breq .L116
 596:main.c        ****             print_value("Day", day);
 2748               		.loc 3 596 0
 2749 0c12 4091 0000 		lds r20,day
 2750 0c16 50E0      		ldi r21,0
 2751 0c18 60E0      		ldi r22,0
 2752 0c1a 70E0      		ldi r23,0
 2753 0c1c 80E0      		ldi r24,lo8(.LC28)
 2754 0c1e 90E0      		ldi r25,hi8(.LC28)
 2755 0c20 00C0      		rjmp .L209
 2756               	.L116:
 598:main.c        ****         	if(strcasestr(myUartString,"=") != NULL){
 2757               		.loc 3 598 0
 2758 0c22 60E0      		ldi r22,lo8(.LC14)
 2759 0c24 70E0      		ldi r23,hi8(.LC14)
 2760 0c26 80E0      		ldi r24,lo8(myUartString)
 2761 0c28 90E0      		ldi r25,hi8(myUartString)
 2762 0c2a 0E94 0000 		call strcasestr
 2763               	.LVL209:
 2764 0c2e 892B      		or r24,r25
 2765 0c30 01F4      		brne .+2
 2766 0c32 00C0      		rjmp .L94
 599:main.c        ****         		if( inRange( splitString(myUartString), 31, 0 ) )
 2767               		.loc 3 599 0
 2768 0c34 80E0      		ldi r24,lo8(myUartString)
 2769 0c36 90E0      		ldi r25,hi8(myUartString)
 2770 0c38 0E94 0000 		call splitString
 2771               	.LVL210:
 2772               	.LBB234:
 2773               	.LBB235:
 503:main.c        **** 	if( inputValue >= lowerBound && inputValue <= upperBound )
 2774               		.loc 3 503 0
 2775 0c3c 6032      		cpi r22,32
 2776 0c3e 7105      		cpc r23,__zero_reg__
 2777 0c40 8105      		cpc r24,__zero_reg__
 2778 0c42 9105      		cpc r25,__zero_reg__
 2779 0c44 00F4      		brsh .+2
 2780 0c46 00C0      		rjmp .L117
 2781 0c48 00C0      		rjmp .L94
 2782               	.LVL211:
 2783               	.L115:
 2784               	.LBE235:
 2785               	.LBE234:
 605:main.c        ****     else if(strcasestr(myUartString,"celsius") != NULL){
 2786               		.loc 3 605 0
 2787 0c4a 60E0      		ldi r22,lo8(.LC29)
 2788 0c4c 70E0      		ldi r23,hi8(.LC29)
 2789 0c4e 80E0      		ldi r24,lo8(myUartString)
 2790 0c50 90E0      		ldi r25,hi8(myUartString)
 2791 0c52 0E94 0000 		call strcasestr
 2792               	.LVL212:
 2793 0c56 892B      		or r24,r25
 2794 0c58 01F0      		breq .L118
 606:main.c        ****         if(strcasestr(myUartString,"?") != NULL){
 2795               		.loc 3 606 0
 2796 0c5a 60E0      		ldi r22,lo8(.LC12)
 2797 0c5c 70E0      		ldi r23,hi8(.LC12)
 2798 0c5e 80E0      		ldi r24,lo8(myUartString)
 2799 0c60 90E0      		ldi r25,hi8(myUartString)
 2800 0c62 0E94 0000 		call strcasestr
 2801               	.LVL213:
 2802 0c66 892B      		or r24,r25
 2803 0c68 01F0      		breq .L119
 607:main.c        ****             print_value("Celsius", celsius);
 2804               		.loc 3 607 0
 2805 0c6a 4091 0000 		lds r20,celsius
 2806 0c6e 50E0      		ldi r21,0
 2807 0c70 60E0      		ldi r22,0
 2808 0c72 70E0      		ldi r23,0
 2809 0c74 80E0      		ldi r24,lo8(.LC30)
 2810 0c76 90E0      		ldi r25,hi8(.LC30)
 2811 0c78 00C0      		rjmp .L209
 2812               	.L119:
 609:main.c        ****         	if(strcasestr(myUartString,"=") != NULL){
 2813               		.loc 3 609 0
 2814 0c7a 60E0      		ldi r22,lo8(.LC14)
 2815 0c7c 70E0      		ldi r23,hi8(.LC14)
 2816 0c7e 80E0      		ldi r24,lo8(myUartString)
 2817 0c80 90E0      		ldi r25,hi8(myUartString)
 2818 0c82 0E94 0000 		call strcasestr
 2819               	.LVL214:
 2820 0c86 892B      		or r24,r25
 2821 0c88 01F4      		brne .+2
 2822 0c8a 00C0      		rjmp .L94
 610:main.c        ****         		if( inRange( splitString(myUartString), 1, 0 ) )
 2823               		.loc 3 610 0
 2824 0c8c 80E0      		ldi r24,lo8(myUartString)
 2825 0c8e 90E0      		ldi r25,hi8(myUartString)
 2826 0c90 0E94 0000 		call splitString
 2827               	.LVL215:
 2828               	.LBB236:
 2829               	.LBB237:
 503:main.c        **** 	if( inputValue >= lowerBound && inputValue <= upperBound )
 2830               		.loc 3 503 0
 2831 0c94 6230      		cpi r22,2
 2832 0c96 7105      		cpc r23,__zero_reg__
 2833 0c98 8105      		cpc r24,__zero_reg__
 2834 0c9a 9105      		cpc r25,__zero_reg__
 2835 0c9c 00F0      		brlo .+2
 2836 0c9e 00C0      		rjmp .L94
 2837 0ca0 00C0      		rjmp .L120
 2838               	.LVL216:
 2839               	.L118:
 2840               	.LBE237:
 2841               	.LBE236:
 616:main.c        ****     else if(strcasestr(myUartString,"doecho") != NULL){
 2842               		.loc 3 616 0
 2843 0ca2 60E0      		ldi r22,lo8(.LC31)
 2844 0ca4 70E0      		ldi r23,hi8(.LC31)
 2845 0ca6 80E0      		ldi r24,lo8(myUartString)
 2846 0ca8 90E0      		ldi r25,hi8(myUartString)
 2847 0caa 0E94 0000 		call strcasestr
 2848               	.LVL217:
 2849 0cae 892B      		or r24,r25
 2850 0cb0 01F0      		breq .L121
 617:main.c        ****         if(strcasestr(myUartString,"?") != NULL){
 2851               		.loc 3 617 0
 2852 0cb2 60E0      		ldi r22,lo8(.LC12)
 2853 0cb4 70E0      		ldi r23,hi8(.LC12)
 2854 0cb6 80E0      		ldi r24,lo8(myUartString)
 2855 0cb8 90E0      		ldi r25,hi8(myUartString)
 2856 0cba 0E94 0000 		call strcasestr
 2857               	.LVL218:
 2858 0cbe 892B      		or r24,r25
 2859 0cc0 01F0      		breq .L122
 618:main.c        ****             print_value("Do Echo", doecho);
 2860               		.loc 3 618 0
 2861 0cc2 4091 0000 		lds r20,doecho
 2862 0cc6 50E0      		ldi r21,0
 2863 0cc8 60E0      		ldi r22,0
 2864 0cca 70E0      		ldi r23,0
 2865 0ccc 80E0      		ldi r24,lo8(.LC32)
 2866 0cce 90E0      		ldi r25,hi8(.LC32)
 2867 0cd0 00C0      		rjmp .L209
 2868               	.L122:
 620:main.c        ****         	if(strcasestr(myUartString,"=") != NULL){
 2869               		.loc 3 620 0
 2870 0cd2 60E0      		ldi r22,lo8(.LC14)
 2871 0cd4 70E0      		ldi r23,hi8(.LC14)
 2872 0cd6 80E0      		ldi r24,lo8(myUartString)
 2873 0cd8 90E0      		ldi r25,hi8(myUartString)
 2874 0cda 0E94 0000 		call strcasestr
 2875               	.LVL219:
 2876 0cde 892B      		or r24,r25
 2877 0ce0 01F4      		brne .+2
 2878 0ce2 00C0      		rjmp .L94
 621:main.c        ****         		if( inRange( splitString(myUartString), 1, 0 ) )
 2879               		.loc 3 621 0
 2880 0ce4 80E0      		ldi r24,lo8(myUartString)
 2881 0ce6 90E0      		ldi r25,hi8(myUartString)
 2882 0ce8 0E94 0000 		call splitString
 2883               	.LVL220:
 2884               	.LBB238:
 2885               	.LBB239:
 503:main.c        **** 	if( inputValue >= lowerBound && inputValue <= upperBound )
 2886               		.loc 3 503 0
 2887 0cec 6230      		cpi r22,2
 2888 0cee 7105      		cpc r23,__zero_reg__
 2889 0cf0 8105      		cpc r24,__zero_reg__
 2890 0cf2 9105      		cpc r25,__zero_reg__
 2891 0cf4 00F0      		brlo .+2
 2892 0cf6 00C0      		rjmp .L94
 2893 0cf8 00C0      		rjmp .L123
 2894               	.LVL221:
 2895               	.L121:
 2896               	.LBE239:
 2897               	.LBE238:
 627:main.c        ****     else if(strcasestr(myUartString,"acclock") != NULL){
 2898               		.loc 3 627 0
 2899 0cfa 60E0      		ldi r22,lo8(.LC33)
 2900 0cfc 70E0      		ldi r23,hi8(.LC33)
 2901 0cfe 80E0      		ldi r24,lo8(myUartString)
 2902 0d00 90E0      		ldi r25,hi8(myUartString)
 2903 0d02 0E94 0000 		call strcasestr
 2904               	.LVL222:
 2905 0d06 892B      		or r24,r25
 2906 0d08 01F0      		breq .L124
 628:main.c        ****         if(strcasestr(myUartString,"?") != NULL){
 2907               		.loc 3 628 0
 2908 0d0a 60E0      		ldi r22,lo8(.LC12)
 2909 0d0c 70E0      		ldi r23,hi8(.LC12)
 2910 0d0e 80E0      		ldi r24,lo8(myUartString)
 2911 0d10 90E0      		ldi r25,hi8(myUartString)
 2912 0d12 0E94 0000 		call strcasestr
 2913               	.LVL223:
 2914 0d16 892B      		or r24,r25
 2915 0d18 01F0      		breq .L125
 629:main.c        ****             print_value("AC Clock", acclock);
 2916               		.loc 3 629 0
 2917 0d1a 4091 0000 		lds r20,acclock
 2918 0d1e 50E0      		ldi r21,0
 2919 0d20 60E0      		ldi r22,0
 2920 0d22 70E0      		ldi r23,0
 2921 0d24 80E0      		ldi r24,lo8(.LC34)
 2922 0d26 90E0      		ldi r25,hi8(.LC34)
 2923 0d28 00C0      		rjmp .L209
 2924               	.L125:
 631:main.c        ****         	if(strcasestr(myUartString,"=") != NULL){
 2925               		.loc 3 631 0
 2926 0d2a 60E0      		ldi r22,lo8(.LC14)
 2927 0d2c 70E0      		ldi r23,hi8(.LC14)
 2928 0d2e 80E0      		ldi r24,lo8(myUartString)
 2929 0d30 90E0      		ldi r25,hi8(myUartString)
 2930 0d32 0E94 0000 		call strcasestr
 2931               	.LVL224:
 2932 0d36 892B      		or r24,r25
 2933 0d38 01F4      		brne .+2
 2934 0d3a 00C0      		rjmp .L94
 632:main.c        ****         		if( inRange( splitString(myUartString), 1, 0 ) )
 2935               		.loc 3 632 0
 2936 0d3c 80E0      		ldi r24,lo8(myUartString)
 2937 0d3e 90E0      		ldi r25,hi8(myUartString)
 2938 0d40 0E94 0000 		call splitString
 2939               	.LVL225:
 2940               	.LBB240:
 2941               	.LBB241:
 503:main.c        **** 	if( inputValue >= lowerBound && inputValue <= upperBound )
 2942               		.loc 3 503 0
 2943 0d44 6230      		cpi r22,2
 2944 0d46 7105      		cpc r23,__zero_reg__
 2945 0d48 8105      		cpc r24,__zero_reg__
 2946 0d4a 9105      		cpc r25,__zero_reg__
 2947 0d4c 00F0      		brlo .+2
 2948 0d4e 00C0      		rjmp .L94
 2949 0d50 00C0      		rjmp .L126
 2950               	.LVL226:
 2951               	.L124:
 2952               	.LBE241:
 2953               	.LBE240:
 638:main.c        ****     else if(strcasestr(myUartString,"xtalisfast") != NULL){
 2954               		.loc 3 638 0
 2955 0d52 60E0      		ldi r22,lo8(.LC35)
 2956 0d54 70E0      		ldi r23,hi8(.LC35)
 2957 0d56 80E0      		ldi r24,lo8(myUartString)
 2958 0d58 90E0      		ldi r25,hi8(myUartString)
 2959 0d5a 0E94 0000 		call strcasestr
 2960               	.LVL227:
 2961 0d5e 892B      		or r24,r25
 2962 0d60 01F0      		breq .L127
 639:main.c        ****         if(strcasestr(myUartString,"?") != NULL){
 2963               		.loc 3 639 0
 2964 0d62 60E0      		ldi r22,lo8(.LC12)
 2965 0d64 70E0      		ldi r23,hi8(.LC12)
 2966 0d66 80E0      		ldi r24,lo8(myUartString)
 2967 0d68 90E0      		ldi r25,hi8(myUartString)
 2968 0d6a 0E94 0000 		call strcasestr
 2969               	.LVL228:
 2970 0d6e 892B      		or r24,r25
 2971 0d70 01F0      		breq .L128
 640:main.c        ****             print_value("xtalisfast", xtalisfast);
 2972               		.loc 3 640 0
 2973 0d72 4091 0000 		lds r20,xtalisfast
 2974 0d76 50E0      		ldi r21,0
 2975 0d78 60E0      		ldi r22,0
 2976 0d7a 70E0      		ldi r23,0
 2977 0d7c 80E0      		ldi r24,lo8(.LC35)
 2978 0d7e 90E0      		ldi r25,hi8(.LC35)
 2979               	.L209:
 2980 0d80 0E94 0000 		call print_value
 2981               	.LVL229:
 2982 0d84 00C0      		rjmp .L94
 2983               	.L128:
 642:main.c        ****         	if(strcasestr(myUartString,"=") != NULL){
 2984               		.loc 3 642 0
 2985 0d86 60E0      		ldi r22,lo8(.LC14)
 2986 0d88 70E0      		ldi r23,hi8(.LC14)
 2987 0d8a 80E0      		ldi r24,lo8(myUartString)
 2988 0d8c 90E0      		ldi r25,hi8(myUartString)
 2989 0d8e 0E94 0000 		call strcasestr
 2990               	.LVL230:
 2991 0d92 892B      		or r24,r25
 2992 0d94 01F4      		brne .+2
 2993 0d96 00C0      		rjmp .L94
 643:main.c        ****         		if( inRange( splitString(myUartString), 1, 0 ) )
 2994               		.loc 3 643 0
 2995 0d98 80E0      		ldi r24,lo8(myUartString)
 2996 0d9a 90E0      		ldi r25,hi8(myUartString)
 2997 0d9c 0E94 0000 		call splitString
 2998               	.LVL231:
 2999               	.LBB242:
 3000               	.LBB243:
 503:main.c        **** 	if( inputValue >= lowerBound && inputValue <= upperBound )
 3001               		.loc 3 503 0
 3002 0da0 6230      		cpi r22,2
 3003 0da2 7105      		cpc r23,__zero_reg__
 3004 0da4 8105      		cpc r24,__zero_reg__
 3005 0da6 9105      		cpc r25,__zero_reg__
 3006 0da8 00F0      		brlo .+2
 3007 0daa 00C0      		rjmp .L94
 3008 0dac 00C0      		rjmp .L129
 3009               	.LVL232:
 3010               	.L127:
 3011               	.LBE243:
 3012               	.LBE242:
 649:main.c        **** 	else if(strcasestr(myUartString,"showtherm") != NULL){
 3013               		.loc 3 649 0
 3014 0dae 60E0      		ldi r22,lo8(.LC36)
 3015 0db0 70E0      		ldi r23,hi8(.LC36)
 3016 0db2 80E0      		ldi r24,lo8(myUartString)
 3017 0db4 90E0      		ldi r25,hi8(myUartString)
 3018 0db6 0E94 0000 		call strcasestr
 3019               	.LVL233:
 3020 0dba 892B      		or r24,r25
 3021 0dbc 01F0      		breq .L130
 650:main.c        ****         if(strcasestr(myUartString,"?") != NULL){
 3022               		.loc 3 650 0
 3023 0dbe 60E0      		ldi r22,lo8(.LC12)
 3024 0dc0 70E0      		ldi r23,hi8(.LC12)
 3025 0dc2 80E0      		ldi r24,lo8(myUartString)
 3026 0dc4 90E0      		ldi r25,hi8(myUartString)
 3027 0dc6 0E94 0000 		call strcasestr
 3028               	.LVL234:
 3029 0dca 892B      		or r24,r25
 3030 0dcc 01F0      		breq .L131
 651:main.c        ****             print_value("Show Therm", showtherm);
 3031               		.loc 3 651 0
 3032 0dce 4091 0000 		lds r20,showtherm
 3033 0dd2 50E0      		ldi r21,0
 3034 0dd4 60E0      		ldi r22,0
 3035 0dd6 70E0      		ldi r23,0
 3036 0dd8 80E0      		ldi r24,lo8(.LC37)
 3037 0dda 90E0      		ldi r25,hi8(.LC37)
 3038 0ddc 00C0      		rjmp .L209
 3039               	.L131:
 653:main.c        ****         	if(strcasestr(myUartString,"=") != NULL){
 3040               		.loc 3 653 0
 3041 0dde 60E0      		ldi r22,lo8(.LC14)
 3042 0de0 70E0      		ldi r23,hi8(.LC14)
 3043 0de2 80E0      		ldi r24,lo8(myUartString)
 3044 0de4 90E0      		ldi r25,hi8(myUartString)
 3045 0de6 0E94 0000 		call strcasestr
 3046               	.LVL235:
 3047 0dea 892B      		or r24,r25
 3048 0dec 01F4      		brne .+2
 3049 0dee 00C0      		rjmp .L94
 654:main.c        ****         		if( inRange( splitString(myUartString), 1, 0 ) )
 3050               		.loc 3 654 0
 3051 0df0 80E0      		ldi r24,lo8(myUartString)
 3052 0df2 90E0      		ldi r25,hi8(myUartString)
 3053 0df4 0E94 0000 		call splitString
 3054               	.LVL236:
 3055               	.LBB244:
 3056               	.LBB245:
 503:main.c        **** 	if( inputValue >= lowerBound && inputValue <= upperBound )
 3057               		.loc 3 503 0
 3058 0df8 6230      		cpi r22,2
 3059 0dfa 7105      		cpc r23,__zero_reg__
 3060 0dfc 8105      		cpc r24,__zero_reg__
 3061 0dfe 9105      		cpc r25,__zero_reg__
 3062 0e00 00F0      		brlo .+2
 3063 0e02 00C0      		rjmp .L94
 3064 0e04 00C0      		rjmp .L132
 3065               	.LVL237:
 3066               	.L130:
 3067               	.LBE245:
 3068               	.LBE244:
 660:main.c        ****     else if(strcasestr(myUartString,"showfreq") != NULL){
 3069               		.loc 3 660 0
 3070 0e06 60E0      		ldi r22,lo8(.LC38)
 3071 0e08 70E0      		ldi r23,hi8(.LC38)
 3072 0e0a 80E0      		ldi r24,lo8(myUartString)
 3073 0e0c 90E0      		ldi r25,hi8(myUartString)
 3074 0e0e 0E94 0000 		call strcasestr
 3075               	.LVL238:
 3076 0e12 892B      		or r24,r25
 3077 0e14 01F0      		breq .L133
 661:main.c        ****         if(strcasestr(myUartString,"?") != NULL){
 3078               		.loc 3 661 0
 3079 0e16 60E0      		ldi r22,lo8(.LC12)
 3080 0e18 70E0      		ldi r23,hi8(.LC12)
 3081 0e1a 80E0      		ldi r24,lo8(myUartString)
 3082 0e1c 90E0      		ldi r25,hi8(myUartString)
 3083 0e1e 0E94 0000 		call strcasestr
 3084               	.LVL239:
 3085 0e22 892B      		or r24,r25
 3086 0e24 01F0      		breq .L134
 662:main.c        ****             print_value("Show Freq", showfreq);
 3087               		.loc 3 662 0
 3088 0e26 4091 0000 		lds r20,showfreq
 3089 0e2a 50E0      		ldi r21,0
 3090 0e2c 60E0      		ldi r22,0
 3091 0e2e 70E0      		ldi r23,0
 3092 0e30 80E0      		ldi r24,lo8(.LC39)
 3093 0e32 90E0      		ldi r25,hi8(.LC39)
 3094 0e34 00C0      		rjmp .L209
 3095               	.L134:
 664:main.c        ****         	if(strcasestr(myUartString,"=") != NULL){
 3096               		.loc 3 664 0
 3097 0e36 60E0      		ldi r22,lo8(.LC14)
 3098 0e38 70E0      		ldi r23,hi8(.LC14)
 3099 0e3a 80E0      		ldi r24,lo8(myUartString)
 3100 0e3c 90E0      		ldi r25,hi8(myUartString)
 3101 0e3e 0E94 0000 		call strcasestr
 3102               	.LVL240:
 3103 0e42 892B      		or r24,r25
 3104 0e44 01F4      		brne .+2
 3105 0e46 00C0      		rjmp .L94
 665:main.c        ****         		if( inRange( splitString(myUartString), 1, 0 ) )
 3106               		.loc 3 665 0
 3107 0e48 80E0      		ldi r24,lo8(myUartString)
 3108 0e4a 90E0      		ldi r25,hi8(myUartString)
 3109 0e4c 0E94 0000 		call splitString
 3110               	.LVL241:
 3111               	.LBB246:
 3112               	.LBB247:
 503:main.c        **** 	if( inputValue >= lowerBound && inputValue <= upperBound )
 3113               		.loc 3 503 0
 3114 0e50 6230      		cpi r22,2
 3115 0e52 7105      		cpc r23,__zero_reg__
 3116 0e54 8105      		cpc r24,__zero_reg__
 3117 0e56 9105      		cpc r25,__zero_reg__
 3118 0e58 00F0      		brlo .+2
 3119 0e5a 00C0      		rjmp .L94
 3120 0e5c 00C0      		rjmp .L135
 3121               	.LVL242:
 3122               	.L133:
 3123               	.LBE247:
 3124               	.LBE246:
 671:main.c        **** 	else if(strcasestr(myUartString,"showdate") != NULL){
 3125               		.loc 3 671 0
 3126 0e5e 60E0      		ldi r22,lo8(.LC40)
 3127 0e60 70E0      		ldi r23,hi8(.LC40)
 3128 0e62 80E0      		ldi r24,lo8(myUartString)
 3129 0e64 90E0      		ldi r25,hi8(myUartString)
 3130 0e66 0E94 0000 		call strcasestr
 3131               	.LVL243:
 3132 0e6a 892B      		or r24,r25
 3133 0e6c 01F0      		breq .L136
 672:main.c        ****         if(strcasestr(myUartString,"?") != NULL){
 3134               		.loc 3 672 0
 3135 0e6e 60E0      		ldi r22,lo8(.LC12)
 3136 0e70 70E0      		ldi r23,hi8(.LC12)
 3137 0e72 80E0      		ldi r24,lo8(myUartString)
 3138 0e74 90E0      		ldi r25,hi8(myUartString)
 3139 0e76 0E94 0000 		call strcasestr
 3140               	.LVL244:
 3141 0e7a 892B      		or r24,r25
 3142 0e7c 01F0      		breq .L137
 673:main.c        ****             print_value("Show Date", showdate);
 3143               		.loc 3 673 0
 3144 0e7e 4091 0000 		lds r20,showdate
 3145 0e82 50E0      		ldi r21,0
 3146 0e84 60E0      		ldi r22,0
 3147 0e86 70E0      		ldi r23,0
 3148 0e88 80E0      		ldi r24,lo8(.LC41)
 3149 0e8a 90E0      		ldi r25,hi8(.LC41)
 3150 0e8c 00C0      		rjmp .L209
 3151               	.L137:
 675:main.c        ****         	if(strcasestr(myUartString,"=") != NULL){
 3152               		.loc 3 675 0
 3153 0e8e 60E0      		ldi r22,lo8(.LC14)
 3154 0e90 70E0      		ldi r23,hi8(.LC14)
 3155 0e92 80E0      		ldi r24,lo8(myUartString)
 3156 0e94 90E0      		ldi r25,hi8(myUartString)
 3157 0e96 0E94 0000 		call strcasestr
 3158               	.LVL245:
 3159 0e9a 892B      		or r24,r25
 3160 0e9c 01F4      		brne .+2
 3161 0e9e 00C0      		rjmp .L94
 676:main.c        ****         		if( inRange( splitString(myUartString), 1, 0 ) )
 3162               		.loc 3 676 0
 3163 0ea0 80E0      		ldi r24,lo8(myUartString)
 3164 0ea2 90E0      		ldi r25,hi8(myUartString)
 3165 0ea4 0E94 0000 		call splitString
 3166               	.LVL246:
 3167               	.LBB248:
 3168               	.LBB249:
 503:main.c        **** 	if( inputValue >= lowerBound && inputValue <= upperBound )
 3169               		.loc 3 503 0
 3170 0ea8 6230      		cpi r22,2
 3171 0eaa 7105      		cpc r23,__zero_reg__
 3172 0eac 8105      		cpc r24,__zero_reg__
 3173 0eae 9105      		cpc r25,__zero_reg__
 3174 0eb0 00F0      		brlo .+2
 3175 0eb2 00C0      		rjmp .L94
 3176 0eb4 00C0      		rjmp .L138
 3177               	.LVL247:
 3178               	.L136:
 3179               	.LBE249:
 3180               	.LBE248:
 682:main.c        ****     else if(strcasestr(myUartString,"toggleled")!= NULL){
 3181               		.loc 3 682 0
 3182 0eb6 60E0      		ldi r22,lo8(.LC42)
 3183 0eb8 70E0      		ldi r23,hi8(.LC42)
 3184 0eba 80E0      		ldi r24,lo8(myUartString)
 3185 0ebc 90E0      		ldi r25,hi8(myUartString)
 3186 0ebe 0E94 0000 		call strcasestr
 3187               	.LVL248:
 3188 0ec2 892B      		or r24,r25
 3189 0ec4 01F0      		breq .L139
 683:main.c        ****         if(strcasestr(myUartString,"?") != NULL){
 3190               		.loc 3 683 0
 3191 0ec6 60E0      		ldi r22,lo8(.LC12)
 3192 0ec8 70E0      		ldi r23,hi8(.LC12)
 3193 0eca 80E0      		ldi r24,lo8(myUartString)
 3194 0ecc 90E0      		ldi r25,hi8(myUartString)
 3195 0ece 0E94 0000 		call strcasestr
 3196               	.LVL249:
 3197 0ed2 892B      		or r24,r25
 3198 0ed4 01F0      		breq .L140
 684:main.c        ****             print_value("Toggle LED", toggleled);
 3199               		.loc 3 684 0
 3200 0ed6 4091 0000 		lds r20,toggleled
 3201 0eda 50E0      		ldi r21,0
 3202 0edc 60E0      		ldi r22,0
 3203 0ede 70E0      		ldi r23,0
 3204 0ee0 80E0      		ldi r24,lo8(.LC43)
 3205 0ee2 90E0      		ldi r25,hi8(.LC43)
 3206 0ee4 00C0      		rjmp .L209
 3207               	.L140:
 686:main.c        ****         	if(strcasestr(myUartString,"=") != NULL){
 3208               		.loc 3 686 0
 3209 0ee6 60E0      		ldi r22,lo8(.LC14)
 3210 0ee8 70E0      		ldi r23,hi8(.LC14)
 3211 0eea 80E0      		ldi r24,lo8(myUartString)
 3212 0eec 90E0      		ldi r25,hi8(myUartString)
 3213 0eee 0E94 0000 		call strcasestr
 3214               	.LVL250:
 3215 0ef2 892B      		or r24,r25
 3216 0ef4 01F4      		brne .+2
 3217 0ef6 00C0      		rjmp .L94
 687:main.c        ****         		if( inRange( splitString(myUartString), 1, 0 ) )
 3218               		.loc 3 687 0
 3219 0ef8 80E0      		ldi r24,lo8(myUartString)
 3220 0efa 90E0      		ldi r25,hi8(myUartString)
 3221 0efc 0E94 0000 		call splitString
 3222               	.LVL251:
 3223               	.LBB250:
 3224               	.LBB251:
 503:main.c        **** 	if( inputValue >= lowerBound && inputValue <= upperBound )
 3225               		.loc 3 503 0
 3226 0f00 6230      		cpi r22,2
 3227 0f02 7105      		cpc r23,__zero_reg__
 3228 0f04 8105      		cpc r24,__zero_reg__
 3229 0f06 9105      		cpc r25,__zero_reg__
 3230 0f08 00F0      		brlo .+2
 3231 0f0a 00C0      		rjmp .L94
 3232 0f0c 00C0      		rjmp .L141
 3233               	.LVL252:
 3234               	.L139:
 3235               	.LBE251:
 3236               	.LBE250:
 693:main.c        ****     else if(strcasestr(myUartString,"nixiesleepstart") != NULL){
 3237               		.loc 3 693 0
 3238 0f0e 60E0      		ldi r22,lo8(.LC44)
 3239 0f10 70E0      		ldi r23,hi8(.LC44)
 3240 0f12 80E0      		ldi r24,lo8(myUartString)
 3241 0f14 90E0      		ldi r25,hi8(myUartString)
 3242 0f16 0E94 0000 		call strcasestr
 3243               	.LVL253:
 3244 0f1a 892B      		or r24,r25
 3245 0f1c 01F0      		breq .L142
 694:main.c        ****         if(strcasestr(myUartString,"?") != NULL){
 3246               		.loc 3 694 0
 3247 0f1e 60E0      		ldi r22,lo8(.LC12)
 3248 0f20 70E0      		ldi r23,hi8(.LC12)
 3249 0f22 80E0      		ldi r24,lo8(myUartString)
 3250 0f24 90E0      		ldi r25,hi8(myUartString)
 3251 0f26 0E94 0000 		call strcasestr
 3252               	.LVL254:
 3253 0f2a 892B      		or r24,r25
 3254 0f2c 01F0      		breq .L143
 695:main.c        ****             print_value("Nixie Sleep Start Time", nixiesleepstart);
 3255               		.loc 3 695 0
 3256 0f2e 4091 0000 		lds r20,nixiesleepstart
 3257 0f32 5091 0000 		lds r21,nixiesleepstart+1
 3258 0f36 6091 0000 		lds r22,nixiesleepstart+2
 3259 0f3a 7091 0000 		lds r23,nixiesleepstart+3
 3260 0f3e 80E0      		ldi r24,lo8(.LC45)
 3261 0f40 90E0      		ldi r25,hi8(.LC45)
 3262 0f42 00C0      		rjmp .L209
 3263               	.L143:
 697:main.c        ****         	if(strcasestr(myUartString,"=") != NULL){
 3264               		.loc 3 697 0
 3265 0f44 60E0      		ldi r22,lo8(.LC14)
 3266 0f46 70E0      		ldi r23,hi8(.LC14)
 3267 0f48 80E0      		ldi r24,lo8(myUartString)
 3268 0f4a 90E0      		ldi r25,hi8(myUartString)
 3269 0f4c 0E94 0000 		call strcasestr
 3270               	.LVL255:
 3271 0f50 892B      		or r24,r25
 3272 0f52 01F4      		brne .+2
 3273 0f54 00C0      		rjmp .L94
 698:main.c        ****         		if( inRange( splitString(myUartString), 2358, 0 ) )
 3274               		.loc 3 698 0
 3275 0f56 80E0      		ldi r24,lo8(myUartString)
 3276 0f58 90E0      		ldi r25,hi8(myUartString)
 3277 0f5a 0E94 0000 		call splitString
 3278               	.LVL256:
 3279               	.LBB252:
 3280               	.LBB253:
 503:main.c        **** 	if( inputValue >= lowerBound && inputValue <= upperBound )
 3281               		.loc 3 503 0
 3282 0f5e 6733      		cpi r22,55
 3283 0f60 7940      		sbci r23,9
 3284 0f62 8105      		cpc r24,__zero_reg__
 3285 0f64 9105      		cpc r25,__zero_reg__
 3286 0f66 00F4      		brsh .+2
 3287 0f68 00C0      		rjmp .L144
 3288 0f6a 00C0      		rjmp .L94
 3289               	.LVL257:
 3290               	.L142:
 3291               	.LBE253:
 3292               	.LBE252:
 704:main.c        ****     else if(strcasestr(myUartString,"nixiesleepend") != NULL){
 3293               		.loc 3 704 0
 3294 0f6c 60E0      		ldi r22,lo8(.LC46)
 3295 0f6e 70E0      		ldi r23,hi8(.LC46)
 3296 0f70 80E0      		ldi r24,lo8(myUartString)
 3297 0f72 90E0      		ldi r25,hi8(myUartString)
 3298 0f74 0E94 0000 		call strcasestr
 3299               	.LVL258:
 3300 0f78 892B      		or r24,r25
 3301 0f7a 01F0      		breq .L145
 705:main.c        ****         if(strcasestr(myUartString,"?") != NULL){
 3302               		.loc 3 705 0
 3303 0f7c 60E0      		ldi r22,lo8(.LC12)
 3304 0f7e 70E0      		ldi r23,hi8(.LC12)
 3305 0f80 80E0      		ldi r24,lo8(myUartString)
 3306 0f82 90E0      		ldi r25,hi8(myUartString)
 3307 0f84 0E94 0000 		call strcasestr
 3308               	.LVL259:
 3309 0f88 892B      		or r24,r25
 3310 0f8a 01F0      		breq .L146
 706:main.c        ****             print_value("Nixie Sleep End Time", nixiesleepend);
 3311               		.loc 3 706 0
 3312 0f8c 4091 0000 		lds r20,nixiesleepend
 3313 0f90 5091 0000 		lds r21,nixiesleepend+1
 3314 0f94 6091 0000 		lds r22,nixiesleepend+2
 3315 0f98 7091 0000 		lds r23,nixiesleepend+3
 3316 0f9c 80E0      		ldi r24,lo8(.LC47)
 3317 0f9e 90E0      		ldi r25,hi8(.LC47)
 3318 0fa0 00C0      		rjmp .L209
 3319               	.L146:
 708:main.c        ****         	if(strcasestr(myUartString,"=") != NULL){
 3320               		.loc 3 708 0
 3321 0fa2 60E0      		ldi r22,lo8(.LC14)
 3322 0fa4 70E0      		ldi r23,hi8(.LC14)
 3323 0fa6 80E0      		ldi r24,lo8(myUartString)
 3324 0fa8 90E0      		ldi r25,hi8(myUartString)
 3325 0faa 0E94 0000 		call strcasestr
 3326               	.LVL260:
 3327 0fae 892B      		or r24,r25
 3328 0fb0 01F4      		brne .+2
 3329 0fb2 00C0      		rjmp .L94
 709:main.c        ****         		if( inRange( splitString(myUartString), 2359, nixiesleepstart + 1 ) )
 3330               		.loc 3 709 0
 3331 0fb4 C090 0000 		lds r12,nixiesleepstart
 3332 0fb8 D090 0000 		lds r13,nixiesleepstart+1
 3333 0fbc E090 0000 		lds r14,nixiesleepstart+2
 3334 0fc0 F090 0000 		lds r15,nixiesleepstart+3
 3335 0fc4 8FEF      		ldi r24,-1
 3336 0fc6 C81A      		sub r12,r24
 3337 0fc8 D80A      		sbc r13,r24
 3338 0fca E80A      		sbc r14,r24
 3339 0fcc F80A      		sbc r15,r24
 3340 0fce 80E0      		ldi r24,lo8(myUartString)
 3341 0fd0 90E0      		ldi r25,hi8(myUartString)
 3342 0fd2 0E94 0000 		call splitString
 3343               	.LVL261:
 3344               	.LBB254:
 3345               	.LBB255:
 503:main.c        **** 	if( inputValue >= lowerBound && inputValue <= upperBound )
 3346               		.loc 3 503 0
 3347 0fd6 6C15      		cp r22,r12
 3348 0fd8 7D05      		cpc r23,r13
 3349 0fda 8E05      		cpc r24,r14
 3350 0fdc 9F05      		cpc r25,r15
 3351 0fde 00F4      		brsh .+2
 3352 0fe0 00C0      		rjmp .L94
 3353 0fe2 6833      		cpi r22,56
 3354 0fe4 7940      		sbci r23,9
 3355 0fe6 8105      		cpc r24,__zero_reg__
 3356 0fe8 9105      		cpc r25,__zero_reg__
 3357 0fea 00F4      		brsh .+2
 3358 0fec 00C0      		rjmp .L147
 3359 0fee 00C0      		rjmp .L94
 3360               	.LVL262:
 3361               	.L145:
 3362               	.LBE255:
 3363               	.LBE254:
 716:main.c        ****     else if(strcasestr(myUartString,"getall") != NULL){
 3364               		.loc 3 716 0
 3365 0ff0 60E0      		ldi r22,lo8(.LC48)
 3366 0ff2 70E0      		ldi r23,hi8(.LC48)
 3367 0ff4 80E0      		ldi r24,lo8(myUartString)
 3368 0ff6 90E0      		ldi r25,hi8(myUartString)
 3369 0ff8 0E94 0000 		call strcasestr
 3370               	.LVL263:
 3371 0ffc 892B      		or r24,r25
 3372 0ffe 01F4      		brne .+2
 3373 1000 00C0      		rjmp .L148
 3374               	.LBB256:
 718:main.c        ****     	print_csv( ",", hours );					
 3375               		.loc 3 718 0
 3376 1002 4091 0000 		lds r20,hours
 3377 1006 50E0      		ldi r21,0
 3378 1008 60E0      		ldi r22,0
 3379 100a 70E0      		ldi r23,0
 3380 100c 80E0      		ldi r24,lo8(.LC49)
 3381 100e 90E0      		ldi r25,hi8(.LC49)
 3382 1010 0E94 0000 		call print_csv
 3383               	.LVL264:
 719:main.c        ****     	print_csv( ",", minutes );					
 3384               		.loc 3 719 0
 3385 1014 4091 0000 		lds r20,minutes
 3386 1018 50E0      		ldi r21,0
 3387 101a 60E0      		ldi r22,0
 3388 101c 70E0      		ldi r23,0
 3389 101e 80E0      		ldi r24,lo8(.LC49)
 3390 1020 90E0      		ldi r25,hi8(.LC49)
 3391 1022 0E94 0000 		call print_csv
 3392               	.LVL265:
 720:main.c        ****     	print_csv( ",", seconds );					
 3393               		.loc 3 720 0
 3394 1026 4091 0000 		lds r20,seconds
 3395 102a 50E0      		ldi r21,0
 3396 102c 60E0      		ldi r22,0
 3397 102e 70E0      		ldi r23,0
 3398 1030 80E0      		ldi r24,lo8(.LC49)
 3399 1032 90E0      		ldi r25,hi8(.LC49)
 3400 1034 0E94 0000 		call print_csv
 3401               	.LVL266:
 721:main.c        ****     	print_csv( ",", mscal );					
 3402               		.loc 3 721 0
 3403 1038 4091 0000 		lds r20,mscal
 3404 103c 5091 0000 		lds r21,mscal+1
 3405 1040 6091 0000 		lds r22,mscal+2
 3406 1044 7091 0000 		lds r23,mscal+3
 3407 1048 80E0      		ldi r24,lo8(.LC49)
 3408 104a 90E0      		ldi r25,hi8(.LC49)
 3409 104c 0E94 0000 		call print_csv
 3410               	.LVL267:
 722:main.c        ****     	print_csv( ",", miltime );					
 3411               		.loc 3 722 0
 3412 1050 4091 0000 		lds r20,miltime
 3413 1054 50E0      		ldi r21,0
 3414 1056 60E0      		ldi r22,0
 3415 1058 70E0      		ldi r23,0
 3416 105a 80E0      		ldi r24,lo8(.LC49)
 3417 105c 90E0      		ldi r25,hi8(.LC49)
 3418 105e 0E94 0000 		call print_csv
 3419               	.LVL268:
 723:main.c        ****     	print_csv( ",", year );						
 3420               		.loc 3 723 0
 3421 1062 4091 0000 		lds r20,year
 3422 1066 5091 0000 		lds r21,year+1
 3423 106a 60E0      		ldi r22,0
 3424 106c 70E0      		ldi r23,0
 3425 106e 80E0      		ldi r24,lo8(.LC49)
 3426 1070 90E0      		ldi r25,hi8(.LC49)
 3427 1072 0E94 0000 		call print_csv
 3428               	.LVL269:
 724:main.c        ****     	print_csv( ",", month );					
 3429               		.loc 3 724 0
 3430 1076 4091 0000 		lds r20,month
 3431 107a 50E0      		ldi r21,0
 3432 107c 60E0      		ldi r22,0
 3433 107e 70E0      		ldi r23,0
 3434 1080 80E0      		ldi r24,lo8(.LC49)
 3435 1082 90E0      		ldi r25,hi8(.LC49)
 3436 1084 0E94 0000 		call print_csv
 3437               	.LVL270:
 725:main.c        ****     	print_csv( ",", day );						
 3438               		.loc 3 725 0
 3439 1088 4091 0000 		lds r20,day
 3440 108c 50E0      		ldi r21,0
 3441 108e 60E0      		ldi r22,0
 3442 1090 70E0      		ldi r23,0
 3443 1092 80E0      		ldi r24,lo8(.LC49)
 3444 1094 90E0      		ldi r25,hi8(.LC49)
 3445 1096 0E94 0000 		call print_csv
 3446               	.LVL271:
 726:main.c        ****     	print_csv( ",", celsius );					
 3447               		.loc 3 726 0
 3448 109a 4091 0000 		lds r20,celsius
 3449 109e 50E0      		ldi r21,0
 3450 10a0 60E0      		ldi r22,0
 3451 10a2 70E0      		ldi r23,0
 3452 10a4 80E0      		ldi r24,lo8(.LC49)
 3453 10a6 90E0      		ldi r25,hi8(.LC49)
 3454 10a8 0E94 0000 		call print_csv
 3455               	.LVL272:
 727:main.c        ****     	print_csv( ",", doecho );					
 3456               		.loc 3 727 0
 3457 10ac 4091 0000 		lds r20,doecho
 3458 10b0 50E0      		ldi r21,0
 3459 10b2 60E0      		ldi r22,0
 3460 10b4 70E0      		ldi r23,0
 3461 10b6 80E0      		ldi r24,lo8(.LC49)
 3462 10b8 90E0      		ldi r25,hi8(.LC49)
 3463 10ba 0E94 0000 		call print_csv
 3464               	.LVL273:
 728:main.c        ****     	print_csv( ",", xtalisfast );				
 3465               		.loc 3 728 0
 3466 10be 4091 0000 		lds r20,xtalisfast
 3467 10c2 50E0      		ldi r21,0
 3468 10c4 60E0      		ldi r22,0
 3469 10c6 70E0      		ldi r23,0
 3470 10c8 80E0      		ldi r24,lo8(.LC49)
 3471 10ca 90E0      		ldi r25,hi8(.LC49)
 3472 10cc 0E94 0000 		call print_csv
 3473               	.LVL274:
 729:main.c        ****     	print_csv( ",", showtherm );				
 3474               		.loc 3 729 0
 3475 10d0 4091 0000 		lds r20,showtherm
 3476 10d4 50E0      		ldi r21,0
 3477 10d6 60E0      		ldi r22,0
 3478 10d8 70E0      		ldi r23,0
 3479 10da 80E0      		ldi r24,lo8(.LC49)
 3480 10dc 90E0      		ldi r25,hi8(.LC49)
 3481 10de 0E94 0000 		call print_csv
 3482               	.LVL275:
 730:main.c        ****     	print_csv( ",", showdate );					
 3483               		.loc 3 730 0
 3484 10e2 4091 0000 		lds r20,showdate
 3485 10e6 50E0      		ldi r21,0
 3486 10e8 60E0      		ldi r22,0
 3487 10ea 70E0      		ldi r23,0
 3488 10ec 80E0      		ldi r24,lo8(.LC49)
 3489 10ee 90E0      		ldi r25,hi8(.LC49)
 3490 10f0 0E94 0000 		call print_csv
 3491               	.LVL276:
 731:main.c        ****     	print_csv( ",", toggleled );				
 3492               		.loc 3 731 0
 3493 10f4 4091 0000 		lds r20,toggleled
 3494 10f8 50E0      		ldi r21,0
 3495 10fa 60E0      		ldi r22,0
 3496 10fc 70E0      		ldi r23,0
 3497 10fe 80E0      		ldi r24,lo8(.LC49)
 3498 1100 90E0      		ldi r25,hi8(.LC49)
 3499 1102 0E94 0000 		call print_csv
 3500               	.LVL277:
 732:main.c        ****     	print_csv( ",", nixiesleepstart );			
 3501               		.loc 3 732 0
 3502 1106 4091 0000 		lds r20,nixiesleepstart
 3503 110a 5091 0000 		lds r21,nixiesleepstart+1
 3504 110e 6091 0000 		lds r22,nixiesleepstart+2
 3505 1112 7091 0000 		lds r23,nixiesleepstart+3
 3506 1116 80E0      		ldi r24,lo8(.LC49)
 3507 1118 90E0      		ldi r25,hi8(.LC49)
 3508 111a 0E94 0000 		call print_csv
 3509               	.LVL278:
 733:main.c        ****     	print_csv( ",", nixiesleepend );				
 3510               		.loc 3 733 0
 3511 111e 4091 0000 		lds r20,nixiesleepend
 3512 1122 5091 0000 		lds r21,nixiesleepend+1
 3513 1126 6091 0000 		lds r22,nixiesleepend+2
 3514 112a 7091 0000 		lds r23,nixiesleepend+3
 3515 112e 80E0      		ldi r24,lo8(.LC49)
 3516 1130 90E0      		ldi r25,hi8(.LC49)
 3517 1132 0E94 0000 		call print_csv
 3518               	.LVL279:
 734:main.c        ****     	print_csv( ",", SERIAL_NUMBER );			
 3519               		.loc 3 734 0
 3520 1136 44E6      		ldi r20,lo8(100)
 3521 1138 50E0      		ldi r21,0
 3522 113a 60E0      		ldi r22,0
 3523 113c 70E0      		ldi r23,0
 3524 113e 80E0      		ldi r24,lo8(.LC49)
 3525 1140 90E0      		ldi r25,hi8(.LC49)
 3526 1142 0E94 0000 		call print_csv
 3527               	.LVL280:
 737:main.c        ****     	double Volts = adc_raw[0] * 0.019375;
 3528               		.loc 3 737 0
 3529 1146 6091 0000 		lds r22,adc_raw
 3530               	.LVL281:
 3531 114a 70E0      		ldi r23,0
 3532 114c 80E0      		ldi r24,0
 3533 114e 90E0      		ldi r25,0
 3534 1150 0E94 0000 		call __floatsisf
 3535               	.LVL282:
 3536 1154 22E5      		ldi r18,lo8(82)
 3537 1156 38EB      		ldi r19,lo8(-72)
 3538 1158 4EE9      		ldi r20,lo8(-98)
 3539 115a 5CE3      		ldi r21,lo8(60)
 3540 115c 0E94 0000 		call __mulsf3
 3541               	.LVL283:
 738:main.c        ****         dtostrf(Volts , 10, 2, printBuffer);
 3542               		.loc 3 738 0
 3543 1160 00E0      		ldi r16,lo8(printBuffer)
 3544 1162 10E0      		ldi r17,hi8(printBuffer)
 3545 1164 22E0      		ldi r18,lo8(2)
 3546 1166 4AE0      		ldi r20,lo8(10)
 3547 1168 0E94 0000 		call dtostrf
 3548               	.LVL284:
 739:main.c        ****         uart_puts(printBuffer);
 3549               		.loc 3 739 0
 3550 116c C801      		movw r24,r16
 3551 116e 0E94 0000 		call uart_puts
 3552               	.LVL285:
 740:main.c        ****         uart_puts(",");
 3553               		.loc 3 740 0
 3554 1172 80E0      		ldi r24,lo8(.LC49)
 3555 1174 90E0      		ldi r25,hi8(.LC49)
 3556 1176 0E94 0000 		call uart_puts
 3557               	.LVL286:
 743:main.c        ****         Volts = adc_raw[1] * 1.9375;
 3558               		.loc 3 743 0
 3559 117a 6091 0000 		lds r22,adc_raw+1
 3560               	.LVL287:
 3561 117e 70E0      		ldi r23,0
 3562 1180 80E0      		ldi r24,0
 3563 1182 90E0      		ldi r25,0
 3564 1184 0E94 0000 		call __floatsisf
 3565               	.LVL288:
 3566 1188 20E0      		ldi r18,0
 3567 118a 30E0      		ldi r19,0
 3568 118c 48EF      		ldi r20,lo8(-8)
 3569 118e 5FE3      		ldi r21,lo8(63)
 3570 1190 0E94 0000 		call __mulsf3
 3571               	.LVL289:
 744:main.c        ****         dtostrf(Volts , 10, 2, printBuffer);
 3572               		.loc 3 744 0
 3573 1194 22E0      		ldi r18,lo8(2)
 3574 1196 4AE0      		ldi r20,lo8(10)
 3575 1198 0E94 0000 		call dtostrf
 3576               	.LVL290:
 745:main.c        ****         uart_puts(printBuffer);
 3577               		.loc 3 745 0
 3578 119c C801      		movw r24,r16
 3579 119e 0E94 0000 		call uart_puts
 3580               	.LVL291:
 746:main.c        ****         uart_puts(",");
 3581               		.loc 3 746 0
 3582 11a2 80E0      		ldi r24,lo8(.LC49)
 3583 11a4 90E0      		ldi r25,hi8(.LC49)
 3584 11a6 0E94 0000 		call uart_puts
 3585               	.LVL292:
 749:main.c        ****         Volts = adc_raw[2] * 0.019375;
 3586               		.loc 3 749 0
 3587 11aa 6091 0000 		lds r22,adc_raw+2
 3588               	.LVL293:
 3589 11ae 70E0      		ldi r23,0
 3590 11b0 80E0      		ldi r24,0
 3591 11b2 90E0      		ldi r25,0
 3592 11b4 0E94 0000 		call __floatsisf
 3593               	.LVL294:
 3594 11b8 22E5      		ldi r18,lo8(82)
 3595 11ba 38EB      		ldi r19,lo8(-72)
 3596 11bc 4EE9      		ldi r20,lo8(-98)
 3597 11be 5CE3      		ldi r21,lo8(60)
 3598 11c0 0E94 0000 		call __mulsf3
 3599               	.LVL295:
 750:main.c        ****         dtostrf(Volts , 10, 2, printBuffer);
 3600               		.loc 3 750 0
 3601 11c4 22E0      		ldi r18,lo8(2)
 3602 11c6 4AE0      		ldi r20,lo8(10)
 3603 11c8 0E94 0000 		call dtostrf
 3604               	.LVL296:
 751:main.c        ****         uart_puts(printBuffer);
 3605               		.loc 3 751 0
 3606 11cc C801      		movw r24,r16
 3607 11ce 0E94 0000 		call uart_puts
 3608               	.LVL297:
 752:main.c        ****         uart_puts(",");
 3609               		.loc 3 752 0
 3610 11d2 80E0      		ldi r24,lo8(.LC49)
 3611 11d4 90E0      		ldi r25,hi8(.LC49)
 3612 11d6 0E94 0000 		call uart_puts
 3613               	.LVL298:
 755:main.c        ****         Volts = adc_raw[3] * 0.11;
 3614               		.loc 3 755 0
 3615 11da 6091 0000 		lds r22,adc_raw+3
 3616               	.LVL299:
 3617 11de 70E0      		ldi r23,0
 3618 11e0 80E0      		ldi r24,0
 3619 11e2 90E0      		ldi r25,0
 3620 11e4 0E94 0000 		call __floatsisf
 3621               	.LVL300:
 3622 11e8 2EEA      		ldi r18,lo8(-82)
 3623 11ea 37E4      		ldi r19,lo8(71)
 3624 11ec 41EE      		ldi r20,lo8(-31)
 3625 11ee 5DE3      		ldi r21,lo8(61)
 3626 11f0 0E94 0000 		call __mulsf3
 3627               	.LVL301:
 3628 11f4 00C0      		rjmp .L210
 3629               	.L148:
 3630               	.LBE256:
 761:main.c        ****     else if(strcasestr(myUartString,"ramtoeeprom") != NULL){
 3631               		.loc 3 761 0
 3632 11f6 60E0      		ldi r22,lo8(.LC50)
 3633 11f8 70E0      		ldi r23,hi8(.LC50)
 3634 11fa 80E0      		ldi r24,lo8(myUartString)
 3635 11fc 90E0      		ldi r25,hi8(myUartString)
 3636 11fe 0E94 0000 		call strcasestr
 3637               	.LVL302:
 3638 1202 892B      		or r24,r25
 3639 1204 01F0      		breq .L149
 762:main.c        ****     	updateVarsToEeprom();   
 3640               		.loc 3 762 0
 3641 1206 0E94 0000 		call updateVarsToEeprom
 3642               	.LVL303:
 763:main.c        **** 		uart_puts( "EEPROM Storage Complete");
 3643               		.loc 3 763 0
 3644 120a 80E0      		ldi r24,lo8(.LC51)
 3645 120c 90E0      		ldi r25,hi8(.LC51)
 3646 120e 00C0      		rjmp .L211
 3647               	.L149:
 766:main.c        ****     else if(strstr(myUartString,"poke") != NULL){
 3648               		.loc 3 766 0
 3649 1210 60E0      		ldi r22,lo8(.LC52)
 3650 1212 70E0      		ldi r23,hi8(.LC52)
 3651 1214 80E0      		ldi r24,lo8(myUartString)
 3652 1216 90E0      		ldi r25,hi8(myUartString)
 3653 1218 0E94 0000 		call strstr
 3654               	.LVL304:
 3655 121c 892B      		or r24,r25
 3656 121e 01F0      		breq .L150
 768:main.c        ****         uart_puts( "Hello!");
 3657               		.loc 3 768 0
 3658 1220 80E0      		ldi r24,lo8(.LC53)
 3659 1222 90E0      		ldi r25,hi8(.LC53)
 3660 1224 0E94 0000 		call uart_puts
 3661               	.LVL305:
 769:main.c        ****         uart_puts( RETURN_NEWLINE );
 3662               		.loc 3 769 0
 3663 1228 80E0      		ldi r24,lo8(.LC3)
 3664 122a 90E0      		ldi r25,hi8(.LC3)
 3665 122c 0E94 0000 		call uart_puts
 3666               	.LVL306:
 770:main.c        ****         uart_puts( "I'm Serial Number: ");
 3667               		.loc 3 770 0
 3668 1230 80E0      		ldi r24,lo8(.LC54)
 3669 1232 90E0      		ldi r25,hi8(.LC54)
 3670 1234 0E94 0000 		call uart_puts
 3671               	.LVL307:
 771:main.c        ****         uart_puts( itoa( SERIAL_NUMBER, printBuffer, 10 ) );
 3672               		.loc 3 771 0
 3673 1238 4AE0      		ldi r20,lo8(10)
 3674 123a 50E0      		ldi r21,0
 3675 123c 60E0      		ldi r22,lo8(printBuffer)
 3676 123e 70E0      		ldi r23,hi8(printBuffer)
 3677 1240 84E6      		ldi r24,lo8(100)
 3678 1242 90E0      		ldi r25,0
 3679 1244 0E94 0000 		call itoa
 3680               	.LVL308:
 3681 1248 00C0      		rjmp .L211
 3682               	.L150:
 775:main.c        ****     else if(strstr(myUartString,"pwrok") != NULL){
 3683               		.loc 3 775 0
 3684 124a 60E0      		ldi r22,lo8(.LC55)
 3685 124c 70E0      		ldi r23,hi8(.LC55)
 3686 124e 80E0      		ldi r24,lo8(myUartString)
 3687 1250 90E0      		ldi r25,hi8(myUartString)
 3688 1252 0E94 0000 		call strstr
 3689               	.LVL309:
 3690 1256 892B      		or r24,r25
 3691 1258 01F0      		breq .L151
 3692               	.LBB257:
 777:main.c        ****         double pwrokVolts = adc_raw[0] * 0.019375;
 3693               		.loc 3 777 0
 3694 125a 6091 0000 		lds r22,adc_raw
 3695               	.LVL310:
 3696 125e 00C0      		rjmp .L213
 3697               	.LVL311:
 3698               	.L151:
 3699               	.LBE257:
 782:main.c        ****     else if(strstr(myUartString,"hvfeedback") != NULL){
 3700               		.loc 3 782 0
 3701 1260 60E0      		ldi r22,lo8(.LC56)
 3702 1262 70E0      		ldi r23,hi8(.LC56)
 3703 1264 80E0      		ldi r24,lo8(myUartString)
 3704 1266 90E0      		ldi r25,hi8(myUartString)
 3705 1268 0E94 0000 		call strstr
 3706               	.LVL312:
 3707 126c 892B      		or r24,r25
 3708 126e 01F0      		breq .L152
 3709               	.LBB258:
 784:main.c        ****         double hvVolts = adc_raw[1] * 1.9375;
 3710               		.loc 3 784 0
 3711 1270 6091 0000 		lds r22,adc_raw+1
 3712               	.LVL313:
 3713 1274 70E0      		ldi r23,0
 3714 1276 80E0      		ldi r24,0
 3715 1278 90E0      		ldi r25,0
 3716 127a 0E94 0000 		call __floatsisf
 3717               	.LVL314:
 3718 127e 20E0      		ldi r18,0
 3719 1280 30E0      		ldi r19,0
 3720 1282 48EF      		ldi r20,lo8(-8)
 3721 1284 5FE3      		ldi r21,lo8(63)
 3722 1286 00C0      		rjmp .L212
 3723               	.L152:
 3724               	.LBE258:
 789:main.c        ****     else if(strstr(myUartString,"battvoltage") != NULL){
 3725               		.loc 3 789 0
 3726 1288 60E0      		ldi r22,lo8(.LC57)
 3727 128a 70E0      		ldi r23,hi8(.LC57)
 3728 128c 80E0      		ldi r24,lo8(myUartString)
 3729 128e 90E0      		ldi r25,hi8(myUartString)
 3730 1290 0E94 0000 		call strstr
 3731               	.LVL315:
 3732 1294 892B      		or r24,r25
 3733 1296 01F0      		breq .L153
 3734               	.LBB259:
 791:main.c        ****         double battVolts = adc_raw[2] * 0.019375;
 3735               		.loc 3 791 0
 3736 1298 6091 0000 		lds r22,adc_raw+2
 3737               	.L213:
 3738               	.LVL316:
 3739 129c 70E0      		ldi r23,0
 3740 129e 80E0      		ldi r24,0
 3741 12a0 90E0      		ldi r25,0
 3742 12a2 0E94 0000 		call __floatsisf
 3743               	.LVL317:
 3744 12a6 22E5      		ldi r18,lo8(82)
 3745 12a8 38EB      		ldi r19,lo8(-72)
 3746 12aa 4EE9      		ldi r20,lo8(-98)
 3747 12ac 5CE3      		ldi r21,lo8(60)
 3748 12ae 00C0      		rjmp .L212
 3749               	.L153:
 3750               	.LBE259:
 796:main.c        ****     else if(strstr(myUartString,"rectifiedac") != NULL){
 3751               		.loc 3 796 0
 3752 12b0 60E0      		ldi r22,lo8(.LC58)
 3753 12b2 70E0      		ldi r23,hi8(.LC58)
 3754 12b4 80E0      		ldi r24,lo8(myUartString)
 3755 12b6 90E0      		ldi r25,hi8(myUartString)
 3756 12b8 0E94 0000 		call strstr
 3757               	.LVL318:
 3758 12bc 892B      		or r24,r25
 3759 12be 01F0      		breq .L94
 3760               	.LBB260:
 800:main.c        ****         double rectVolts = adc_raw[3] * 0.11;
 3761               		.loc 3 800 0
 3762 12c0 6091 0000 		lds r22,adc_raw+3
 3763               	.LVL319:
 3764 12c4 70E0      		ldi r23,0
 3765 12c6 80E0      		ldi r24,0
 3766 12c8 90E0      		ldi r25,0
 3767 12ca 0E94 0000 		call __floatsisf
 3768               	.LVL320:
 3769 12ce 2EEA      		ldi r18,lo8(-82)
 3770 12d0 37E4      		ldi r19,lo8(71)
 3771 12d2 41EE      		ldi r20,lo8(-31)
 3772 12d4 5DE3      		ldi r21,lo8(61)
 3773               	.L212:
 3774 12d6 0E94 0000 		call __mulsf3
 3775               	.LVL321:
 801:main.c        ****         dtostrf(rectVolts , 10, 2, printBuffer);
 3776               		.loc 3 801 0
 3777 12da 00E0      		ldi r16,lo8(printBuffer)
 3778 12dc 10E0      		ldi r17,hi8(printBuffer)
 3779               	.L210:
 3780 12de 22E0      		ldi r18,lo8(2)
 3781 12e0 4AE0      		ldi r20,lo8(10)
 3782 12e2 0E94 0000 		call dtostrf
 3783               	.LVL322:
 802:main.c        ****         uart_puts(printBuffer);
 3784               		.loc 3 802 0
 3785 12e6 C801      		movw r24,r16
 3786               	.L211:
 3787 12e8 0E94 0000 		call uart_puts
 3788               	.LVL323:
 3789               	.L94:
 3790               	.LBE260:
 804:main.c        ****     uart_puts( RETURN_NEWLINE );
 3791               		.loc 3 804 0
 3792 12ec 80E0      		ldi r24,lo8(.LC3)
 3793 12ee 90E0      		ldi r25,hi8(.LC3)
 3794               	/* epilogue start */
 805:main.c        **** }
 3795               		.loc 3 805 0
 3796 12f0 1F91      		pop r17
 3797 12f2 0F91      		pop r16
 3798 12f4 FF90      		pop r15
 3799 12f6 EF90      		pop r14
 3800 12f8 DF90      		pop r13
 3801 12fa CF90      		pop r12
 804:main.c        ****     uart_puts( RETURN_NEWLINE );
 3802               		.loc 3 804 0
 3803 12fc 0C94 0000 		jmp uart_puts
 3804               	.LVL324:
 3805               	.L96:
 523:main.c        ****             		hours = splitString(myUartString);
 3806               		.loc 3 523 0
 3807 1300 80E0      		ldi r24,lo8(myUartString)
 3808 1302 90E0      		ldi r25,hi8(myUartString)
 3809 1304 0E94 0000 		call splitString
 3810               	.LVL325:
 3811 1308 6093 0000 		sts hours,r22
 3812 130c 00C0      		rjmp .L94
 3813               	.LVL326:
 3814               	.L100:
 534:main.c        ****             		minutes = splitString(myUartString);
 3815               		.loc 3 534 0
 3816 130e 80E0      		ldi r24,lo8(myUartString)
 3817 1310 90E0      		ldi r25,hi8(myUartString)
 3818 1312 0E94 0000 		call splitString
 3819               	.LVL327:
 3820 1316 6093 0000 		sts minutes,r22
 3821 131a 00C0      		rjmp .L94
 3822               	.LVL328:
 3823               	.L103:
 545:main.c        ****             		seconds = splitString(myUartString);
 3824               		.loc 3 545 0
 3825 131c 80E0      		ldi r24,lo8(myUartString)
 3826 131e 90E0      		ldi r25,hi8(myUartString)
 3827 1320 0E94 0000 		call splitString
 3828               	.LVL329:
 3829 1324 6093 0000 		sts seconds,r22
 3830 1328 00C0      		rjmp .L94
 3831               	.LVL330:
 3832               	.L108:
 567:main.c        ****             		miltime = splitString(myUartString);
 3833               		.loc 3 567 0
 3834 132a 80E0      		ldi r24,lo8(myUartString)
 3835 132c 90E0      		ldi r25,hi8(myUartString)
 3836 132e 0E94 0000 		call splitString
 3837               	.LVL331:
 3838 1332 6093 0000 		sts miltime,r22
 3839 1336 00C0      		rjmp .L94
 3840               	.LVL332:
 3841               	.L111:
 578:main.c        ****             		year = splitString(myUartString);
 3842               		.loc 3 578 0
 3843 1338 80E0      		ldi r24,lo8(myUartString)
 3844 133a 90E0      		ldi r25,hi8(myUartString)
 3845 133c 0E94 0000 		call splitString
 3846               	.LVL333:
 3847 1340 7093 0000 		sts year+1,r23
 3848 1344 6093 0000 		sts year,r22
 3849 1348 00C0      		rjmp .L94
 3850               	.LVL334:
 3851               	.L114:
 589:main.c        ****             		month = splitString(myUartString);
 3852               		.loc 3 589 0
 3853 134a 80E0      		ldi r24,lo8(myUartString)
 3854 134c 90E0      		ldi r25,hi8(myUartString)
 3855 134e 0E94 0000 		call splitString
 3856               	.LVL335:
 3857 1352 6093 0000 		sts month,r22
 3858 1356 00C0      		rjmp .L94
 3859               	.LVL336:
 3860               	.L117:
 600:main.c        ****             		day = splitString(myUartString);
 3861               		.loc 3 600 0
 3862 1358 80E0      		ldi r24,lo8(myUartString)
 3863 135a 90E0      		ldi r25,hi8(myUartString)
 3864 135c 0E94 0000 		call splitString
 3865               	.LVL337:
 3866 1360 6093 0000 		sts day,r22
 3867 1364 00C0      		rjmp .L94
 3868               	.LVL338:
 3869               	.L120:
 611:main.c        ****             		celsius = splitString(myUartString);
 3870               		.loc 3 611 0
 3871 1366 80E0      		ldi r24,lo8(myUartString)
 3872 1368 90E0      		ldi r25,hi8(myUartString)
 3873 136a 0E94 0000 		call splitString
 3874               	.LVL339:
 3875 136e 6093 0000 		sts celsius,r22
 3876 1372 00C0      		rjmp .L94
 3877               	.LVL340:
 3878               	.L123:
 622:main.c        ****             		doecho = splitString(myUartString);
 3879               		.loc 3 622 0
 3880 1374 80E0      		ldi r24,lo8(myUartString)
 3881 1376 90E0      		ldi r25,hi8(myUartString)
 3882 1378 0E94 0000 		call splitString
 3883               	.LVL341:
 3884 137c 6093 0000 		sts doecho,r22
 3885 1380 00C0      		rjmp .L94
 3886               	.LVL342:
 3887               	.L126:
 633:main.c        ****             		acclock = splitString(myUartString);
 3888               		.loc 3 633 0
 3889 1382 80E0      		ldi r24,lo8(myUartString)
 3890 1384 90E0      		ldi r25,hi8(myUartString)
 3891 1386 0E94 0000 		call splitString
 3892               	.LVL343:
 3893 138a 6093 0000 		sts acclock,r22
 3894 138e 00C0      		rjmp .L94
 3895               	.LVL344:
 3896               	.L129:
 644:main.c        ****             		xtalisfast = splitString(myUartString);
 3897               		.loc 3 644 0
 3898 1390 80E0      		ldi r24,lo8(myUartString)
 3899 1392 90E0      		ldi r25,hi8(myUartString)
 3900 1394 0E94 0000 		call splitString
 3901               	.LVL345:
 3902 1398 6093 0000 		sts xtalisfast,r22
 3903 139c 00C0      		rjmp .L94
 3904               	.LVL346:
 3905               	.L132:
 655:main.c        ****             		showtherm = splitString(myUartString);
 3906               		.loc 3 655 0
 3907 139e 80E0      		ldi r24,lo8(myUartString)
 3908 13a0 90E0      		ldi r25,hi8(myUartString)
 3909 13a2 0E94 0000 		call splitString
 3910               	.LVL347:
 3911 13a6 6093 0000 		sts showtherm,r22
 3912 13aa 00C0      		rjmp .L94
 3913               	.LVL348:
 3914               	.L135:
 666:main.c        ****             		showfreq = splitString(myUartString);
 3915               		.loc 3 666 0
 3916 13ac 80E0      		ldi r24,lo8(myUartString)
 3917 13ae 90E0      		ldi r25,hi8(myUartString)
 3918 13b0 0E94 0000 		call splitString
 3919               	.LVL349:
 3920 13b4 6093 0000 		sts showfreq,r22
 3921 13b8 00C0      		rjmp .L94
 3922               	.LVL350:
 3923               	.L138:
 677:main.c        ****             		showdate = splitString(myUartString);
 3924               		.loc 3 677 0
 3925 13ba 80E0      		ldi r24,lo8(myUartString)
 3926 13bc 90E0      		ldi r25,hi8(myUartString)
 3927 13be 0E94 0000 		call splitString
 3928               	.LVL351:
 3929 13c2 6093 0000 		sts showdate,r22
 3930 13c6 00C0      		rjmp .L94
 3931               	.LVL352:
 3932               	.L141:
 688:main.c        ****             		toggleled = splitString(myUartString);
 3933               		.loc 3 688 0
 3934 13c8 80E0      		ldi r24,lo8(myUartString)
 3935 13ca 90E0      		ldi r25,hi8(myUartString)
 3936 13cc 0E94 0000 		call splitString
 3937               	.LVL353:
 3938 13d0 6093 0000 		sts toggleled,r22
 3939 13d4 00C0      		rjmp .L94
 3940               	.LVL354:
 3941               	.L144:
 699:main.c        ****             		nixiesleepstart = splitString(myUartString);
 3942               		.loc 3 699 0
 3943 13d6 80E0      		ldi r24,lo8(myUartString)
 3944 13d8 90E0      		ldi r25,hi8(myUartString)
 3945 13da 0E94 0000 		call splitString
 3946               	.LVL355:
 3947 13de 6093 0000 		sts nixiesleepstart,r22
 3948 13e2 7093 0000 		sts nixiesleepstart+1,r23
 3949 13e6 8093 0000 		sts nixiesleepstart+2,r24
 3950 13ea 9093 0000 		sts nixiesleepstart+3,r25
 3951 13ee 00C0      		rjmp .L94
 3952               	.LVL356:
 3953               	.L147:
 710:main.c        ****             		nixiesleepend = splitString(myUartString);
 3954               		.loc 3 710 0
 3955 13f0 80E0      		ldi r24,lo8(myUartString)
 3956 13f2 90E0      		ldi r25,hi8(myUartString)
 3957 13f4 0E94 0000 		call splitString
 3958               	.LVL357:
 3959 13f8 6093 0000 		sts nixiesleepend,r22
 3960 13fc 7093 0000 		sts nixiesleepend+1,r23
 3961 1400 8093 0000 		sts nixiesleepend+2,r24
 3962 1404 9093 0000 		sts nixiesleepend+3,r25
 3963 1408 00C0      		rjmp .L94
 3964               		.cfi_endproc
 3965               	.LFE27:
 3967               	.global	checkSerialIn
 3969               	checkSerialIn:
 3970               	.LFB31:
 848:main.c        **** {
 3971               		.loc 3 848 0
 3972               		.cfi_startproc
 3973 140a CF93      		push r28
 3974               	.LCFI53:
 3975               		.cfi_def_cfa_offset 3
 3976               		.cfi_offset 28, -2
 3977 140c DF93      		push r29
 3978               	.LCFI54:
 3979               		.cfi_def_cfa_offset 4
 3980               		.cfi_offset 29, -3
 3981               	/* prologue: function */
 3982               	/* frame size = 0 */
 3983               	/* stack size = 2 */
 3984               	.L__stack_usage = 2
 850:main.c        ****     unsigned int aChar = uart_getc();
 3985               		.loc 3 850 0
 3986 140e 0E94 0000 		call uart_getc
 3987               	.LVL358:
 3988 1412 EC01      		movw r28,r24
 3989               	.LVL359:
